
TC_EXAMPLE11.elf:     file format elf32-avr

Sections:
Idx Name          Size      VMA       LMA       File off  Algn
  0 .text         0000131a  00000000  00000000  00000074  2**1
                  CONTENTS, ALLOC, LOAD, READONLY, CODE
  1 .data         00000000  00802000  00802000  0000138e  2**0
                  CONTENTS, ALLOC, LOAD, DATA
  2 .bss          0000004e  00802000  00802000  0000138e  2**0
                  ALLOC
  3 .comment      00000030  00000000  00000000  0000138e  2**0
                  CONTENTS, READONLY
  4 .note.gnu.avr.deviceinfo 00000044  00000000  00000000  000013c0  2**2
                  CONTENTS, READONLY
  5 .debug_aranges 00000248  00000000  00000000  00001404  2**0
                  CONTENTS, READONLY, DEBUGGING
  6 .debug_info   00007392  00000000  00000000  0000164c  2**0
                  CONTENTS, READONLY, DEBUGGING
  7 .debug_abbrev 00003aa5  00000000  00000000  000089de  2**0
                  CONTENTS, READONLY, DEBUGGING
  8 .debug_line   00002f17  00000000  00000000  0000c483  2**0
                  CONTENTS, READONLY, DEBUGGING
  9 .debug_frame  00000e60  00000000  00000000  0000f39c  2**2
                  CONTENTS, READONLY, DEBUGGING
 10 .debug_str    0002faa4  00000000  00000000  000101fc  2**0
                  CONTENTS, READONLY, DEBUGGING
 11 .debug_loc    000024e3  00000000  00000000  0003fca0  2**0
                  CONTENTS, READONLY, DEBUGGING
 12 .debug_ranges 000001e0  00000000  00000000  00042183  2**0
                  CONTENTS, READONLY, DEBUGGING
 13 .debug_macro  0000a984  00000000  00000000  00042363  2**0
                  CONTENTS, READONLY, DEBUGGING

Disassembly of section .text:

00000000 <__vectors>:
       0:	fd c0       	rjmp	.+506    	; 0x1fc <__ctors_end>
       2:	00 00       	nop
       4:	1c c1       	rjmp	.+568    	; 0x23e <__bad_interrupt>
       6:	00 00       	nop
       8:	1a c1       	rjmp	.+564    	; 0x23e <__bad_interrupt>
       a:	00 00       	nop
       c:	18 c1       	rjmp	.+560    	; 0x23e <__bad_interrupt>
       e:	00 00       	nop
      10:	16 c1       	rjmp	.+556    	; 0x23e <__bad_interrupt>
      12:	00 00       	nop
      14:	14 c1       	rjmp	.+552    	; 0x23e <__bad_interrupt>
      16:	00 00       	nop
      18:	12 c1       	rjmp	.+548    	; 0x23e <__bad_interrupt>
      1a:	00 00       	nop
      1c:	10 c1       	rjmp	.+544    	; 0x23e <__bad_interrupt>
      1e:	00 00       	nop
      20:	0e c1       	rjmp	.+540    	; 0x23e <__bad_interrupt>
      22:	00 00       	nop
      24:	0c c1       	rjmp	.+536    	; 0x23e <__bad_interrupt>
      26:	00 00       	nop
      28:	0a c1       	rjmp	.+532    	; 0x23e <__bad_interrupt>
      2a:	00 00       	nop
      2c:	08 c1       	rjmp	.+528    	; 0x23e <__bad_interrupt>
      2e:	00 00       	nop
      30:	06 c1       	rjmp	.+524    	; 0x23e <__bad_interrupt>
      32:	00 00       	nop
      34:	04 c1       	rjmp	.+520    	; 0x23e <__bad_interrupt>
      36:	00 00       	nop
      38:	8d c1       	rjmp	.+794    	; 0x354 <__vector_14>
      3a:	00 00       	nop
      3c:	b8 c1       	rjmp	.+880    	; 0x3ae <__vector_15>
      3e:	00 00       	nop
      40:	e3 c1       	rjmp	.+966    	; 0x408 <__vector_16>
      42:	00 00       	nop
      44:	0e c2       	rjmp	.+1052   	; 0x462 <__vector_17>
      46:	00 00       	nop
      48:	39 c2       	rjmp	.+1138   	; 0x4bc <__vector_18>
      4a:	00 00       	nop
      4c:	64 c2       	rjmp	.+1224   	; 0x516 <__vector_19>
      4e:	00 00       	nop
      50:	8f c2       	rjmp	.+1310   	; 0x570 <__vector_20>
      52:	00 00       	nop
      54:	ba c2       	rjmp	.+1396   	; 0x5ca <__vector_21>
      56:	00 00       	nop
      58:	e5 c2       	rjmp	.+1482   	; 0x624 <__vector_22>
      5a:	00 00       	nop
      5c:	10 c3       	rjmp	.+1568   	; 0x67e <__vector_23>
      5e:	00 00       	nop
      60:	ee c0       	rjmp	.+476    	; 0x23e <__bad_interrupt>
      62:	00 00       	nop
      64:	ec c0       	rjmp	.+472    	; 0x23e <__bad_interrupt>
      66:	00 00       	nop
      68:	ea c0       	rjmp	.+468    	; 0x23e <__bad_interrupt>
      6a:	00 00       	nop
      6c:	e8 c0       	rjmp	.+464    	; 0x23e <__bad_interrupt>
      6e:	00 00       	nop
      70:	e6 c0       	rjmp	.+460    	; 0x23e <__bad_interrupt>
      72:	00 00       	nop
      74:	e4 c0       	rjmp	.+456    	; 0x23e <__bad_interrupt>
      76:	00 00       	nop
      78:	e2 c0       	rjmp	.+452    	; 0x23e <__bad_interrupt>
      7a:	00 00       	nop
      7c:	e0 c0       	rjmp	.+448    	; 0x23e <__bad_interrupt>
      7e:	00 00       	nop
      80:	de c0       	rjmp	.+444    	; 0x23e <__bad_interrupt>
      82:	00 00       	nop
      84:	dc c0       	rjmp	.+440    	; 0x23e <__bad_interrupt>
      86:	00 00       	nop
      88:	da c0       	rjmp	.+436    	; 0x23e <__bad_interrupt>
      8a:	00 00       	nop
      8c:	d8 c0       	rjmp	.+432    	; 0x23e <__bad_interrupt>
      8e:	00 00       	nop
      90:	d6 c0       	rjmp	.+428    	; 0x23e <__bad_interrupt>
      92:	00 00       	nop
      94:	d4 c0       	rjmp	.+424    	; 0x23e <__bad_interrupt>
      96:	00 00       	nop
      98:	d2 c0       	rjmp	.+420    	; 0x23e <__bad_interrupt>
      9a:	00 00       	nop
      9c:	d0 c0       	rjmp	.+416    	; 0x23e <__bad_interrupt>
      9e:	00 00       	nop
      a0:	ce c0       	rjmp	.+412    	; 0x23e <__bad_interrupt>
      a2:	00 00       	nop
      a4:	cc c0       	rjmp	.+408    	; 0x23e <__bad_interrupt>
      a6:	00 00       	nop
      a8:	ca c0       	rjmp	.+404    	; 0x23e <__bad_interrupt>
      aa:	00 00       	nop
      ac:	c8 c0       	rjmp	.+400    	; 0x23e <__bad_interrupt>
      ae:	00 00       	nop
      b0:	c6 c0       	rjmp	.+396    	; 0x23e <__bad_interrupt>
      b2:	00 00       	nop
      b4:	c4 c0       	rjmp	.+392    	; 0x23e <__bad_interrupt>
      b6:	00 00       	nop
      b8:	c2 c0       	rjmp	.+388    	; 0x23e <__bad_interrupt>
      ba:	00 00       	nop
      bc:	cf c4       	rjmp	.+2462   	; 0xa5c <__vector_47>
      be:	00 00       	nop
      c0:	fa c4       	rjmp	.+2548   	; 0xab6 <__vector_48>
      c2:	00 00       	nop
      c4:	25 c5       	rjmp	.+2634   	; 0xb10 <__vector_49>
      c6:	00 00       	nop
      c8:	50 c5       	rjmp	.+2720   	; 0xb6a <__vector_50>
      ca:	00 00       	nop
      cc:	7b c5       	rjmp	.+2806   	; 0xbc4 <__vector_51>
      ce:	00 00       	nop
      d0:	a6 c5       	rjmp	.+2892   	; 0xc1e <__vector_52>
      d2:	00 00       	nop
      d4:	d1 c5       	rjmp	.+2978   	; 0xc78 <__vector_53>
      d6:	00 00       	nop
      d8:	fc c5       	rjmp	.+3064   	; 0xcd2 <__vector_54>
      da:	00 00       	nop
      dc:	27 c6       	rjmp	.+3150   	; 0xd2c <__vector_55>
      de:	00 00       	nop
      e0:	52 c6       	rjmp	.+3236   	; 0xd86 <__vector_56>
      e2:	00 00       	nop
      e4:	ac c0       	rjmp	.+344    	; 0x23e <__bad_interrupt>
      e6:	00 00       	nop
      e8:	aa c0       	rjmp	.+340    	; 0x23e <__bad_interrupt>
      ea:	00 00       	nop
      ec:	a8 c0       	rjmp	.+336    	; 0x23e <__bad_interrupt>
      ee:	00 00       	nop
      f0:	a6 c0       	rjmp	.+332    	; 0x23e <__bad_interrupt>
      f2:	00 00       	nop
      f4:	a4 c0       	rjmp	.+328    	; 0x23e <__bad_interrupt>
      f6:	00 00       	nop
      f8:	a2 c0       	rjmp	.+324    	; 0x23e <__bad_interrupt>
      fa:	00 00       	nop
      fc:	a0 c0       	rjmp	.+320    	; 0x23e <__bad_interrupt>
      fe:	00 00       	nop
     100:	9e c0       	rjmp	.+316    	; 0x23e <__bad_interrupt>
     102:	00 00       	nop
     104:	9c c0       	rjmp	.+312    	; 0x23e <__bad_interrupt>
     106:	00 00       	nop
     108:	9a c0       	rjmp	.+308    	; 0x23e <__bad_interrupt>
     10a:	00 00       	nop
     10c:	98 c0       	rjmp	.+304    	; 0x23e <__bad_interrupt>
     10e:	00 00       	nop
     110:	96 c0       	rjmp	.+300    	; 0x23e <__bad_interrupt>
     112:	00 00       	nop
     114:	94 c0       	rjmp	.+296    	; 0x23e <__bad_interrupt>
     116:	00 00       	nop
     118:	92 c0       	rjmp	.+292    	; 0x23e <__bad_interrupt>
     11a:	00 00       	nop
     11c:	90 c0       	rjmp	.+288    	; 0x23e <__bad_interrupt>
     11e:	00 00       	nop
     120:	8e c0       	rjmp	.+284    	; 0x23e <__bad_interrupt>
     122:	00 00       	nop
     124:	8c c0       	rjmp	.+280    	; 0x23e <__bad_interrupt>
     126:	00 00       	nop
     128:	8a c0       	rjmp	.+276    	; 0x23e <__bad_interrupt>
     12a:	00 00       	nop
     12c:	88 c0       	rjmp	.+272    	; 0x23e <__bad_interrupt>
     12e:	00 00       	nop
     130:	86 c0       	rjmp	.+268    	; 0x23e <__bad_interrupt>
     132:	00 00       	nop
     134:	d1 c2       	rjmp	.+1442   	; 0x6d8 <__vector_77>
     136:	00 00       	nop
     138:	fc c2       	rjmp	.+1528   	; 0x732 <__vector_78>
     13a:	00 00       	nop
     13c:	27 c3       	rjmp	.+1614   	; 0x78c <__vector_79>
     13e:	00 00       	nop
     140:	52 c3       	rjmp	.+1700   	; 0x7e6 <__vector_80>
     142:	00 00       	nop
     144:	7d c3       	rjmp	.+1786   	; 0x840 <__vector_81>
     146:	00 00       	nop
     148:	a8 c3       	rjmp	.+1872   	; 0x89a <__vector_82>
     14a:	00 00       	nop
     14c:	d3 c3       	rjmp	.+1958   	; 0x8f4 <__vector_83>
     14e:	00 00       	nop
     150:	fe c3       	rjmp	.+2044   	; 0x94e <__vector_84>
     152:	00 00       	nop
     154:	29 c4       	rjmp	.+2130   	; 0x9a8 <__vector_85>
     156:	00 00       	nop
     158:	54 c4       	rjmp	.+2216   	; 0xa02 <__vector_86>
     15a:	00 00       	nop
     15c:	70 c0       	rjmp	.+224    	; 0x23e <__bad_interrupt>
     15e:	00 00       	nop
     160:	6e c0       	rjmp	.+220    	; 0x23e <__bad_interrupt>
     162:	00 00       	nop
     164:	6c c0       	rjmp	.+216    	; 0x23e <__bad_interrupt>
     166:	00 00       	nop
     168:	6a c0       	rjmp	.+212    	; 0x23e <__bad_interrupt>
     16a:	00 00       	nop
     16c:	68 c0       	rjmp	.+208    	; 0x23e <__bad_interrupt>
     16e:	00 00       	nop
     170:	66 c0       	rjmp	.+204    	; 0x23e <__bad_interrupt>
     172:	00 00       	nop
     174:	64 c0       	rjmp	.+200    	; 0x23e <__bad_interrupt>
     176:	00 00       	nop
     178:	62 c0       	rjmp	.+196    	; 0x23e <__bad_interrupt>
     17a:	00 00       	nop
     17c:	60 c0       	rjmp	.+192    	; 0x23e <__bad_interrupt>
     17e:	00 00       	nop
     180:	5e c0       	rjmp	.+188    	; 0x23e <__bad_interrupt>
     182:	00 00       	nop
     184:	5c c0       	rjmp	.+184    	; 0x23e <__bad_interrupt>
     186:	00 00       	nop
     188:	5a c0       	rjmp	.+180    	; 0x23e <__bad_interrupt>
     18a:	00 00       	nop
     18c:	58 c0       	rjmp	.+176    	; 0x23e <__bad_interrupt>
     18e:	00 00       	nop
     190:	56 c0       	rjmp	.+172    	; 0x23e <__bad_interrupt>
     192:	00 00       	nop
     194:	54 c0       	rjmp	.+168    	; 0x23e <__bad_interrupt>
     196:	00 00       	nop
     198:	52 c0       	rjmp	.+164    	; 0x23e <__bad_interrupt>
     19a:	00 00       	nop
     19c:	50 c0       	rjmp	.+160    	; 0x23e <__bad_interrupt>
     19e:	00 00       	nop
     1a0:	4e c0       	rjmp	.+156    	; 0x23e <__bad_interrupt>
     1a2:	00 00       	nop
     1a4:	4c c0       	rjmp	.+152    	; 0x23e <__bad_interrupt>
     1a6:	00 00       	nop
     1a8:	4a c0       	rjmp	.+148    	; 0x23e <__bad_interrupt>
     1aa:	00 00       	nop
     1ac:	48 c0       	rjmp	.+144    	; 0x23e <__bad_interrupt>
     1ae:	00 00       	nop
     1b0:	17 c6       	rjmp	.+3118   	; 0xde0 <__vector_108>
     1b2:	00 00       	nop
     1b4:	42 c6       	rjmp	.+3204   	; 0xe3a <__vector_109>
     1b6:	00 00       	nop
     1b8:	6d c6       	rjmp	.+3290   	; 0xe94 <__vector_110>
     1ba:	00 00       	nop
     1bc:	98 c6       	rjmp	.+3376   	; 0xeee <__vector_111>
     1be:	00 00       	nop
     1c0:	c3 c6       	rjmp	.+3462   	; 0xf48 <__vector_112>
     1c2:	00 00       	nop
     1c4:	ee c6       	rjmp	.+3548   	; 0xfa2 <__vector_113>
     1c6:	00 00       	nop
     1c8:	3a c0       	rjmp	.+116    	; 0x23e <__bad_interrupt>
     1ca:	00 00       	nop
     1cc:	38 c0       	rjmp	.+112    	; 0x23e <__bad_interrupt>
     1ce:	00 00       	nop
     1d0:	36 c0       	rjmp	.+108    	; 0x23e <__bad_interrupt>
     1d2:	00 00       	nop
     1d4:	34 c0       	rjmp	.+104    	; 0x23e <__bad_interrupt>
     1d6:	00 00       	nop
     1d8:	32 c0       	rjmp	.+100    	; 0x23e <__bad_interrupt>
     1da:	00 00       	nop
     1dc:	30 c0       	rjmp	.+96     	; 0x23e <__bad_interrupt>
     1de:	00 00       	nop
     1e0:	2e c0       	rjmp	.+92     	; 0x23e <__bad_interrupt>
     1e2:	00 00       	nop
     1e4:	2c c0       	rjmp	.+88     	; 0x23e <__bad_interrupt>
     1e6:	00 00       	nop
     1e8:	2a c0       	rjmp	.+84     	; 0x23e <__bad_interrupt>
     1ea:	00 00       	nop
     1ec:	28 c0       	rjmp	.+80     	; 0x23e <__bad_interrupt>
     1ee:	00 00       	nop
     1f0:	26 c0       	rjmp	.+76     	; 0x23e <__bad_interrupt>
     1f2:	00 00       	nop
     1f4:	24 c0       	rjmp	.+72     	; 0x23e <__bad_interrupt>
     1f6:	00 00       	nop
     1f8:	22 c0       	rjmp	.+68     	; 0x23e <__bad_interrupt>
	...

000001fc <__ctors_end>:
     1fc:	11 24       	eor	r1, r1
     1fe:	1f be       	out	0x3f, r1	; 63
     200:	cf ef       	ldi	r28, 0xFF	; 255
     202:	cd bf       	out	0x3d, r28	; 61
     204:	df e5       	ldi	r29, 0x5F	; 95
     206:	de bf       	out	0x3e, r29	; 62
     208:	00 e0       	ldi	r16, 0x00	; 0
     20a:	0c bf       	out	0x3c, r16	; 60

0000020c <__do_copy_data>:
     20c:	10 e2       	ldi	r17, 0x20	; 32
     20e:	a0 e0       	ldi	r26, 0x00	; 0
     210:	b0 e2       	ldi	r27, 0x20	; 32
     212:	ea e1       	ldi	r30, 0x1A	; 26
     214:	f3 e1       	ldi	r31, 0x13	; 19
     216:	00 e0       	ldi	r16, 0x00	; 0
     218:	0b bf       	out	0x3b, r16	; 59
     21a:	02 c0       	rjmp	.+4      	; 0x220 <__do_copy_data+0x14>
     21c:	07 90       	elpm	r0, Z+
     21e:	0d 92       	st	X+, r0
     220:	a0 30       	cpi	r26, 0x00	; 0
     222:	b1 07       	cpc	r27, r17
     224:	d9 f7       	brne	.-10     	; 0x21c <__do_copy_data+0x10>

00000226 <__do_clear_bss>:
     226:	20 e2       	ldi	r18, 0x20	; 32
     228:	a0 e0       	ldi	r26, 0x00	; 0
     22a:	b0 e2       	ldi	r27, 0x20	; 32
     22c:	01 c0       	rjmp	.+2      	; 0x230 <.do_clear_bss_start>

0000022e <.do_clear_bss_loop>:
     22e:	1d 92       	st	X+, r1

00000230 <.do_clear_bss_start>:
     230:	ae 34       	cpi	r26, 0x4E	; 78
     232:	b2 07       	cpc	r27, r18
     234:	e1 f7       	brne	.-8      	; 0x22e <.do_clear_bss_loop>
     236:	0e 94 35 09 	call	0x126a	; 0x126a <main>
     23a:	0c 94 8b 09 	jmp	0x1316	; 0x1316 <_exit>

0000023e <__bad_interrupt>:
     23e:	e0 ce       	rjmp	.-576    	; 0x0 <__vectors>

00000240 <sysclk_init>:
#endif
	bool need_rc2mhz = false;

	/* Turn off all peripheral clocks that can be turned off. */
	for (i = 0; i <= SYSCLK_PORT_F; i++) {
		*(reg++) = 0xff;
     240:	8f ef       	ldi	r24, 0xFF	; 255
     242:	80 93 70 00 	sts	0x0070, r24	; 0x800070 <__TEXT_REGION_LENGTH__+0x700070>
     246:	80 93 71 00 	sts	0x0071, r24	; 0x800071 <__TEXT_REGION_LENGTH__+0x700071>
     24a:	80 93 72 00 	sts	0x0072, r24	; 0x800072 <__TEXT_REGION_LENGTH__+0x700072>
     24e:	80 93 73 00 	sts	0x0073, r24	; 0x800073 <__TEXT_REGION_LENGTH__+0x700073>
     252:	80 93 74 00 	sts	0x0074, r24	; 0x800074 <__TEXT_REGION_LENGTH__+0x700074>
     256:	80 93 75 00 	sts	0x0075, r24	; 0x800075 <__TEXT_REGION_LENGTH__+0x700075>
     25a:	80 93 76 00 	sts	0x0076, r24	; 0x800076 <__TEXT_REGION_LENGTH__+0x700076>
     25e:	08 95       	ret

00000260 <sysclk_enable_module>:
	sysclk_rtcsrc_enable(CONFIG_RTC_SOURCE);
#endif
}

void sysclk_enable_module(enum sysclk_port_id port, uint8_t id)
{
     260:	cf 93       	push	r28
     262:	df 93       	push	r29
     264:	1f 92       	push	r1
     266:	cd b7       	in	r28, 0x3d	; 61
     268:	de b7       	in	r29, 0x3e	; 62

typedef uint8_t irqflags_t;

static inline irqflags_t cpu_irq_save(void)
{
	volatile irqflags_t flags = SREG;
     26a:	9f b7       	in	r25, 0x3f	; 63
     26c:	99 83       	std	Y+1, r25	; 0x01
	cpu_irq_disable();
     26e:	f8 94       	cli
	return flags;
     270:	99 81       	ldd	r25, Y+1	; 0x01
	irqflags_t flags = cpu_irq_save();

	*((uint8_t *)&PR.PRGEN + port) &= ~id;
     272:	e8 2f       	mov	r30, r24
     274:	f0 e0       	ldi	r31, 0x00	; 0
     276:	e0 59       	subi	r30, 0x90	; 144
     278:	ff 4f       	sbci	r31, 0xFF	; 255
     27a:	60 95       	com	r22
     27c:	80 81       	ld	r24, Z
     27e:	68 23       	and	r22, r24
     280:	60 83       	st	Z, r22
}

static inline void cpu_irq_restore(irqflags_t flags)
{
	barrier();
	SREG = flags;
     282:	9f bf       	out	0x3f, r25	; 63

	cpu_irq_restore(flags);
}
     284:	0f 90       	pop	r0
     286:	df 91       	pop	r29
     288:	cf 91       	pop	r28
     28a:	08 95       	ret

0000028c <ioport_configure_port_pin>:
#include "ioport_compat.h"

#if defined(IOPORT_XMEGA_COMPAT)
void ioport_configure_port_pin(void *port, pin_mask_t pin_mask,
		port_pin_flags_t flags)
{
     28c:	cf 93       	push	r28
     28e:	df 93       	push	r29
     290:	fc 01       	movw	r30, r24
	uint8_t pin;

	for (pin = 0; pin < 8; pin++) {
		if (pin_mask & (1 << pin)) {
			*((uint8_t *)port + PORT_PIN0CTRL + pin) = flags >> 8;
     292:	20 e0       	ldi	r18, 0x00	; 0
     294:	30 e0       	ldi	r19, 0x00	; 0
		port_pin_flags_t flags)
{
	uint8_t pin;

	for (pin = 0; pin < 8; pin++) {
		if (pin_mask & (1 << pin)) {
     296:	c6 2f       	mov	r28, r22
     298:	d0 e0       	ldi	r29, 0x00	; 0
     29a:	de 01       	movw	r26, r28
     29c:	02 2e       	mov	r0, r18
     29e:	02 c0       	rjmp	.+4      	; 0x2a4 <ioport_configure_port_pin+0x18>
     2a0:	b5 95       	asr	r27
     2a2:	a7 95       	ror	r26
     2a4:	0a 94       	dec	r0
     2a6:	e2 f7       	brpl	.-8      	; 0x2a0 <ioport_configure_port_pin+0x14>
     2a8:	a0 fd       	sbrc	r26, 0
			*((uint8_t *)port + PORT_PIN0CTRL + pin) = flags >> 8;
     2aa:	50 8b       	std	Z+16, r21	; 0x10
     2ac:	2f 5f       	subi	r18, 0xFF	; 255
     2ae:	3f 4f       	sbci	r19, 0xFF	; 255
     2b0:	31 96       	adiw	r30, 0x01	; 1
void ioport_configure_port_pin(void *port, pin_mask_t pin_mask,
		port_pin_flags_t flags)
{
	uint8_t pin;

	for (pin = 0; pin < 8; pin++) {
     2b2:	28 30       	cpi	r18, 0x08	; 8
     2b4:	31 05       	cpc	r19, r1
     2b6:	89 f7       	brne	.-30     	; 0x29a <ioport_configure_port_pin+0xe>
		if (pin_mask & (1 << pin)) {
			*((uint8_t *)port + PORT_PIN0CTRL + pin) = flags >> 8;
		}
	}
	/* Select direction and initial pin state */
	if (flags & IOPORT_DIR_OUTPUT) {
     2b8:	40 ff       	sbrs	r20, 0
     2ba:	0a c0       	rjmp	.+20     	; 0x2d0 <ioport_configure_port_pin+0x44>
		if (flags & IOPORT_INIT_HIGH) {
     2bc:	41 ff       	sbrs	r20, 1
     2be:	03 c0       	rjmp	.+6      	; 0x2c6 <ioport_configure_port_pin+0x3a>
			*((uint8_t *)port + PORT_OUTSET) = pin_mask;
     2c0:	fc 01       	movw	r30, r24
     2c2:	65 83       	std	Z+5, r22	; 0x05
     2c4:	02 c0       	rjmp	.+4      	; 0x2ca <ioport_configure_port_pin+0x3e>
		} else {
			*((uint8_t *)port + PORT_OUTCLR) = pin_mask;
     2c6:	fc 01       	movw	r30, r24
     2c8:	66 83       	std	Z+6, r22	; 0x06
		}

		*((uint8_t *)port + PORT_DIRSET) = pin_mask;
     2ca:	fc 01       	movw	r30, r24
     2cc:	61 83       	std	Z+1, r22	; 0x01
     2ce:	02 c0       	rjmp	.+4      	; 0x2d4 <ioport_configure_port_pin+0x48>
	} else {
		*((uint8_t *)port + PORT_DIRCLR) = pin_mask;
     2d0:	fc 01       	movw	r30, r24
     2d2:	62 83       	std	Z+2, r22	; 0x02
	}
}
     2d4:	df 91       	pop	r29
     2d6:	cf 91       	pop	r28
     2d8:	08 95       	ret

000002da <board_init>:
 * \param flags Bitmask of flags specifying additional configuration
 * parameters.
 */
static inline void ioport_configure_pin(port_pin_t pin, port_pin_flags_t flags)
{
	ioport_configure_port_pin(arch_ioport_pin_to_base(pin),
     2da:	43 e0       	ldi	r20, 0x03	; 3
     2dc:	50 e0       	ldi	r21, 0x00	; 0
     2de:	61 e0       	ldi	r22, 0x01	; 1
     2e0:	80 ee       	ldi	r24, 0xE0	; 224
     2e2:	97 e0       	ldi	r25, 0x07	; 7
     2e4:	d3 df       	rcall	.-90     	; 0x28c <ioport_configure_port_pin>
     2e6:	43 e0       	ldi	r20, 0x03	; 3
     2e8:	50 e0       	ldi	r21, 0x00	; 0
     2ea:	62 e0       	ldi	r22, 0x02	; 2
     2ec:	80 ee       	ldi	r24, 0xE0	; 224
     2ee:	97 e0       	ldi	r25, 0x07	; 7
     2f0:	cd df       	rcall	.-102    	; 0x28c <ioport_configure_port_pin>
     2f2:	43 e0       	ldi	r20, 0x03	; 3
     2f4:	50 e0       	ldi	r21, 0x00	; 0
     2f6:	60 e1       	ldi	r22, 0x10	; 16
     2f8:	80 e6       	ldi	r24, 0x60	; 96
     2fa:	96 e0       	ldi	r25, 0x06	; 6
     2fc:	c7 df       	rcall	.-114    	; 0x28c <ioport_configure_port_pin>
     2fe:	41 e0       	ldi	r20, 0x01	; 1
     300:	50 e4       	ldi	r21, 0x40	; 64
     302:	60 e2       	ldi	r22, 0x20	; 32
     304:	80 e6       	ldi	r24, 0x60	; 96
     306:	96 e0       	ldi	r25, 0x06	; 6
     308:	c1 df       	rcall	.-126    	; 0x28c <ioport_configure_port_pin>
     30a:	40 e0       	ldi	r20, 0x00	; 0
     30c:	5b e1       	ldi	r21, 0x1B	; 27
     30e:	60 e2       	ldi	r22, 0x20	; 32
     310:	80 e8       	ldi	r24, 0x80	; 128
     312:	96 e0       	ldi	r25, 0x06	; 6
     314:	bb df       	rcall	.-138    	; 0x28c <ioport_configure_port_pin>
     316:	40 e0       	ldi	r20, 0x00	; 0
     318:	5b e1       	ldi	r21, 0x1B	; 27
     31a:	62 e0       	ldi	r22, 0x02	; 2
     31c:	80 ea       	ldi	r24, 0xA0	; 160
     31e:	96 e0       	ldi	r25, 0x06	; 6
     320:	b5 df       	rcall	.-150    	; 0x28c <ioport_configure_port_pin>
     322:	40 e0       	ldi	r20, 0x00	; 0
     324:	5b e1       	ldi	r21, 0x1B	; 27
     326:	64 e0       	ldi	r22, 0x04	; 4
     328:	80 ea       	ldi	r24, 0xA0	; 160
     32a:	96 e0       	ldi	r25, 0x06	; 6
     32c:	af df       	rcall	.-162    	; 0x28c <ioport_configure_port_pin>
     32e:	40 e0       	ldi	r20, 0x00	; 0
     330:	50 e0       	ldi	r21, 0x00	; 0
     332:	61 e0       	ldi	r22, 0x01	; 1
     334:	80 e0       	ldi	r24, 0x00	; 0
     336:	96 e0       	ldi	r25, 0x06	; 6
     338:	a9 df       	rcall	.-174    	; 0x28c <ioport_configure_port_pin>
     33a:	40 e0       	ldi	r20, 0x00	; 0
     33c:	50 e0       	ldi	r21, 0x00	; 0
     33e:	64 e0       	ldi	r22, 0x04	; 4
     340:	80 e0       	ldi	r24, 0x00	; 0
     342:	96 e0       	ldi	r25, 0x06	; 6
     344:	a3 df       	rcall	.-186    	; 0x28c <ioport_configure_port_pin>
     346:	40 e0       	ldi	r20, 0x00	; 0
     348:	50 e0       	ldi	r21, 0x00	; 0
     34a:	62 e0       	ldi	r22, 0x02	; 2
     34c:	80 e2       	ldi	r24, 0x20	; 32
     34e:	96 e0       	ldi	r25, 0x06	; 6
     350:	9d cf       	rjmp	.-198    	; 0x28c <ioport_configure_port_pin>
     352:	08 95       	ret

00000354 <__vector_14>:
		tc_tce1_err_callback = callback;
	} else
#endif
#ifdef TCF0
	if ((uintptr_t) tc == (uintptr_t) & TCF0) {
		tc_tcf0_err_callback = callback;
     354:	1f 92       	push	r1
     356:	0f 92       	push	r0
     358:	0f b6       	in	r0, 0x3f	; 63
     35a:	0f 92       	push	r0
     35c:	11 24       	eor	r1, r1
     35e:	0b b6       	in	r0, 0x3b	; 59
     360:	0f 92       	push	r0
     362:	2f 93       	push	r18
     364:	3f 93       	push	r19
     366:	4f 93       	push	r20
     368:	5f 93       	push	r21
     36a:	6f 93       	push	r22
     36c:	7f 93       	push	r23
     36e:	8f 93       	push	r24
     370:	9f 93       	push	r25
     372:	af 93       	push	r26
     374:	bf 93       	push	r27
     376:	ef 93       	push	r30
     378:	ff 93       	push	r31
     37a:	e0 91 46 20 	lds	r30, 0x2046	; 0x802046 <tc_tcc0_ovf_callback>
     37e:	f0 91 47 20 	lds	r31, 0x2047	; 0x802047 <tc_tcc0_ovf_callback+0x1>
     382:	30 97       	sbiw	r30, 0x00	; 0
     384:	09 f0       	breq	.+2      	; 0x388 <__vector_14+0x34>
     386:	19 95       	eicall
     388:	ff 91       	pop	r31
     38a:	ef 91       	pop	r30
     38c:	bf 91       	pop	r27
     38e:	af 91       	pop	r26
     390:	9f 91       	pop	r25
     392:	8f 91       	pop	r24
     394:	7f 91       	pop	r23
     396:	6f 91       	pop	r22
     398:	5f 91       	pop	r21
     39a:	4f 91       	pop	r20
     39c:	3f 91       	pop	r19
     39e:	2f 91       	pop	r18
     3a0:	0f 90       	pop	r0
     3a2:	0b be       	out	0x3b, r0	; 59
     3a4:	0f 90       	pop	r0
     3a6:	0f be       	out	0x3f, r0	; 63
     3a8:	0f 90       	pop	r0
     3aa:	1f 90       	pop	r1
     3ac:	18 95       	reti

000003ae <__vector_15>:
     3ae:	1f 92       	push	r1
     3b0:	0f 92       	push	r0
     3b2:	0f b6       	in	r0, 0x3f	; 63
     3b4:	0f 92       	push	r0
     3b6:	11 24       	eor	r1, r1
     3b8:	0b b6       	in	r0, 0x3b	; 59
     3ba:	0f 92       	push	r0
     3bc:	2f 93       	push	r18
     3be:	3f 93       	push	r19
     3c0:	4f 93       	push	r20
     3c2:	5f 93       	push	r21
     3c4:	6f 93       	push	r22
     3c6:	7f 93       	push	r23
     3c8:	8f 93       	push	r24
     3ca:	9f 93       	push	r25
     3cc:	af 93       	push	r26
     3ce:	bf 93       	push	r27
     3d0:	ef 93       	push	r30
     3d2:	ff 93       	push	r31
     3d4:	e0 91 44 20 	lds	r30, 0x2044	; 0x802044 <tc_tcc0_err_callback>
     3d8:	f0 91 45 20 	lds	r31, 0x2045	; 0x802045 <tc_tcc0_err_callback+0x1>
     3dc:	30 97       	sbiw	r30, 0x00	; 0
     3de:	09 f0       	breq	.+2      	; 0x3e2 <__vector_15+0x34>
     3e0:	19 95       	eicall
     3e2:	ff 91       	pop	r31
     3e4:	ef 91       	pop	r30
     3e6:	bf 91       	pop	r27
     3e8:	af 91       	pop	r26
     3ea:	9f 91       	pop	r25
     3ec:	8f 91       	pop	r24
     3ee:	7f 91       	pop	r23
     3f0:	6f 91       	pop	r22
     3f2:	5f 91       	pop	r21
     3f4:	4f 91       	pop	r20
     3f6:	3f 91       	pop	r19
     3f8:	2f 91       	pop	r18
     3fa:	0f 90       	pop	r0
     3fc:	0b be       	out	0x3b, r0	; 59
     3fe:	0f 90       	pop	r0
     400:	0f be       	out	0x3f, r0	; 63
     402:	0f 90       	pop	r0
     404:	1f 90       	pop	r1
     406:	18 95       	reti

00000408 <__vector_16>:
     408:	1f 92       	push	r1
     40a:	0f 92       	push	r0
     40c:	0f b6       	in	r0, 0x3f	; 63
     40e:	0f 92       	push	r0
     410:	11 24       	eor	r1, r1
     412:	0b b6       	in	r0, 0x3b	; 59
     414:	0f 92       	push	r0
     416:	2f 93       	push	r18
     418:	3f 93       	push	r19
     41a:	4f 93       	push	r20
     41c:	5f 93       	push	r21
     41e:	6f 93       	push	r22
     420:	7f 93       	push	r23
     422:	8f 93       	push	r24
     424:	9f 93       	push	r25
     426:	af 93       	push	r26
     428:	bf 93       	push	r27
     42a:	ef 93       	push	r30
     42c:	ff 93       	push	r31
     42e:	e0 91 42 20 	lds	r30, 0x2042	; 0x802042 <tc_tcc0_cca_callback>
     432:	f0 91 43 20 	lds	r31, 0x2043	; 0x802043 <tc_tcc0_cca_callback+0x1>
     436:	30 97       	sbiw	r30, 0x00	; 0
     438:	09 f0       	breq	.+2      	; 0x43c <__vector_16+0x34>
     43a:	19 95       	eicall
     43c:	ff 91       	pop	r31
     43e:	ef 91       	pop	r30
     440:	bf 91       	pop	r27
     442:	af 91       	pop	r26
     444:	9f 91       	pop	r25
     446:	8f 91       	pop	r24
     448:	7f 91       	pop	r23
     44a:	6f 91       	pop	r22
     44c:	5f 91       	pop	r21
     44e:	4f 91       	pop	r20
     450:	3f 91       	pop	r19
     452:	2f 91       	pop	r18
     454:	0f 90       	pop	r0
     456:	0b be       	out	0x3b, r0	; 59
     458:	0f 90       	pop	r0
     45a:	0f be       	out	0x3f, r0	; 63
     45c:	0f 90       	pop	r0
     45e:	1f 90       	pop	r1
     460:	18 95       	reti

00000462 <__vector_17>:
     462:	1f 92       	push	r1
     464:	0f 92       	push	r0
     466:	0f b6       	in	r0, 0x3f	; 63
     468:	0f 92       	push	r0
     46a:	11 24       	eor	r1, r1
     46c:	0b b6       	in	r0, 0x3b	; 59
     46e:	0f 92       	push	r0
     470:	2f 93       	push	r18
     472:	3f 93       	push	r19
     474:	4f 93       	push	r20
     476:	5f 93       	push	r21
     478:	6f 93       	push	r22
     47a:	7f 93       	push	r23
     47c:	8f 93       	push	r24
     47e:	9f 93       	push	r25
     480:	af 93       	push	r26
     482:	bf 93       	push	r27
     484:	ef 93       	push	r30
     486:	ff 93       	push	r31
     488:	e0 91 40 20 	lds	r30, 0x2040	; 0x802040 <tc_tcc0_ccb_callback>
     48c:	f0 91 41 20 	lds	r31, 0x2041	; 0x802041 <tc_tcc0_ccb_callback+0x1>
     490:	30 97       	sbiw	r30, 0x00	; 0
     492:	09 f0       	breq	.+2      	; 0x496 <__vector_17+0x34>
     494:	19 95       	eicall
     496:	ff 91       	pop	r31
     498:	ef 91       	pop	r30
     49a:	bf 91       	pop	r27
     49c:	af 91       	pop	r26
     49e:	9f 91       	pop	r25
     4a0:	8f 91       	pop	r24
     4a2:	7f 91       	pop	r23
     4a4:	6f 91       	pop	r22
     4a6:	5f 91       	pop	r21
     4a8:	4f 91       	pop	r20
     4aa:	3f 91       	pop	r19
     4ac:	2f 91       	pop	r18
     4ae:	0f 90       	pop	r0
     4b0:	0b be       	out	0x3b, r0	; 59
     4b2:	0f 90       	pop	r0
     4b4:	0f be       	out	0x3f, r0	; 63
     4b6:	0f 90       	pop	r0
     4b8:	1f 90       	pop	r1
     4ba:	18 95       	reti

000004bc <__vector_18>:
     4bc:	1f 92       	push	r1
     4be:	0f 92       	push	r0
     4c0:	0f b6       	in	r0, 0x3f	; 63
     4c2:	0f 92       	push	r0
     4c4:	11 24       	eor	r1, r1
     4c6:	0b b6       	in	r0, 0x3b	; 59
     4c8:	0f 92       	push	r0
     4ca:	2f 93       	push	r18
     4cc:	3f 93       	push	r19
     4ce:	4f 93       	push	r20
     4d0:	5f 93       	push	r21
     4d2:	6f 93       	push	r22
     4d4:	7f 93       	push	r23
     4d6:	8f 93       	push	r24
     4d8:	9f 93       	push	r25
     4da:	af 93       	push	r26
     4dc:	bf 93       	push	r27
     4de:	ef 93       	push	r30
     4e0:	ff 93       	push	r31
     4e2:	e0 91 3e 20 	lds	r30, 0x203E	; 0x80203e <tc_tcc0_ccc_callback>
     4e6:	f0 91 3f 20 	lds	r31, 0x203F	; 0x80203f <tc_tcc0_ccc_callback+0x1>
     4ea:	30 97       	sbiw	r30, 0x00	; 0
     4ec:	09 f0       	breq	.+2      	; 0x4f0 <__vector_18+0x34>
     4ee:	19 95       	eicall
     4f0:	ff 91       	pop	r31
     4f2:	ef 91       	pop	r30
     4f4:	bf 91       	pop	r27
     4f6:	af 91       	pop	r26
     4f8:	9f 91       	pop	r25
     4fa:	8f 91       	pop	r24
     4fc:	7f 91       	pop	r23
     4fe:	6f 91       	pop	r22
     500:	5f 91       	pop	r21
     502:	4f 91       	pop	r20
     504:	3f 91       	pop	r19
     506:	2f 91       	pop	r18
     508:	0f 90       	pop	r0
     50a:	0b be       	out	0x3b, r0	; 59
     50c:	0f 90       	pop	r0
     50e:	0f be       	out	0x3f, r0	; 63
     510:	0f 90       	pop	r0
     512:	1f 90       	pop	r1
     514:	18 95       	reti

00000516 <__vector_19>:
     516:	1f 92       	push	r1
     518:	0f 92       	push	r0
     51a:	0f b6       	in	r0, 0x3f	; 63
     51c:	0f 92       	push	r0
     51e:	11 24       	eor	r1, r1
     520:	0b b6       	in	r0, 0x3b	; 59
     522:	0f 92       	push	r0
     524:	2f 93       	push	r18
     526:	3f 93       	push	r19
     528:	4f 93       	push	r20
     52a:	5f 93       	push	r21
     52c:	6f 93       	push	r22
     52e:	7f 93       	push	r23
     530:	8f 93       	push	r24
     532:	9f 93       	push	r25
     534:	af 93       	push	r26
     536:	bf 93       	push	r27
     538:	ef 93       	push	r30
     53a:	ff 93       	push	r31
     53c:	e0 91 3c 20 	lds	r30, 0x203C	; 0x80203c <tc_tcc0_ccd_callback>
     540:	f0 91 3d 20 	lds	r31, 0x203D	; 0x80203d <tc_tcc0_ccd_callback+0x1>
     544:	30 97       	sbiw	r30, 0x00	; 0
     546:	09 f0       	breq	.+2      	; 0x54a <__vector_19+0x34>
     548:	19 95       	eicall
     54a:	ff 91       	pop	r31
     54c:	ef 91       	pop	r30
     54e:	bf 91       	pop	r27
     550:	af 91       	pop	r26
     552:	9f 91       	pop	r25
     554:	8f 91       	pop	r24
     556:	7f 91       	pop	r23
     558:	6f 91       	pop	r22
     55a:	5f 91       	pop	r21
     55c:	4f 91       	pop	r20
     55e:	3f 91       	pop	r19
     560:	2f 91       	pop	r18
     562:	0f 90       	pop	r0
     564:	0b be       	out	0x3b, r0	; 59
     566:	0f 90       	pop	r0
     568:	0f be       	out	0x3f, r0	; 63
     56a:	0f 90       	pop	r0
     56c:	1f 90       	pop	r1
     56e:	18 95       	reti

00000570 <__vector_20>:
     570:	1f 92       	push	r1
     572:	0f 92       	push	r0
     574:	0f b6       	in	r0, 0x3f	; 63
     576:	0f 92       	push	r0
     578:	11 24       	eor	r1, r1
     57a:	0b b6       	in	r0, 0x3b	; 59
     57c:	0f 92       	push	r0
     57e:	2f 93       	push	r18
     580:	3f 93       	push	r19
     582:	4f 93       	push	r20
     584:	5f 93       	push	r21
     586:	6f 93       	push	r22
     588:	7f 93       	push	r23
     58a:	8f 93       	push	r24
     58c:	9f 93       	push	r25
     58e:	af 93       	push	r26
     590:	bf 93       	push	r27
     592:	ef 93       	push	r30
     594:	ff 93       	push	r31
     596:	e0 91 3a 20 	lds	r30, 0x203A	; 0x80203a <tc_tcc1_ovf_callback>
     59a:	f0 91 3b 20 	lds	r31, 0x203B	; 0x80203b <tc_tcc1_ovf_callback+0x1>
     59e:	30 97       	sbiw	r30, 0x00	; 0
     5a0:	09 f0       	breq	.+2      	; 0x5a4 <__vector_20+0x34>
     5a2:	19 95       	eicall
     5a4:	ff 91       	pop	r31
     5a6:	ef 91       	pop	r30
     5a8:	bf 91       	pop	r27
     5aa:	af 91       	pop	r26
     5ac:	9f 91       	pop	r25
     5ae:	8f 91       	pop	r24
     5b0:	7f 91       	pop	r23
     5b2:	6f 91       	pop	r22
     5b4:	5f 91       	pop	r21
     5b6:	4f 91       	pop	r20
     5b8:	3f 91       	pop	r19
     5ba:	2f 91       	pop	r18
     5bc:	0f 90       	pop	r0
     5be:	0b be       	out	0x3b, r0	; 59
     5c0:	0f 90       	pop	r0
     5c2:	0f be       	out	0x3f, r0	; 63
     5c4:	0f 90       	pop	r0
     5c6:	1f 90       	pop	r1
     5c8:	18 95       	reti

000005ca <__vector_21>:
     5ca:	1f 92       	push	r1
     5cc:	0f 92       	push	r0
     5ce:	0f b6       	in	r0, 0x3f	; 63
     5d0:	0f 92       	push	r0
     5d2:	11 24       	eor	r1, r1
     5d4:	0b b6       	in	r0, 0x3b	; 59
     5d6:	0f 92       	push	r0
     5d8:	2f 93       	push	r18
     5da:	3f 93       	push	r19
     5dc:	4f 93       	push	r20
     5de:	5f 93       	push	r21
     5e0:	6f 93       	push	r22
     5e2:	7f 93       	push	r23
     5e4:	8f 93       	push	r24
     5e6:	9f 93       	push	r25
     5e8:	af 93       	push	r26
     5ea:	bf 93       	push	r27
     5ec:	ef 93       	push	r30
     5ee:	ff 93       	push	r31
     5f0:	e0 91 38 20 	lds	r30, 0x2038	; 0x802038 <tc_tcc1_err_callback>
     5f4:	f0 91 39 20 	lds	r31, 0x2039	; 0x802039 <tc_tcc1_err_callback+0x1>
     5f8:	30 97       	sbiw	r30, 0x00	; 0
     5fa:	09 f0       	breq	.+2      	; 0x5fe <__vector_21+0x34>
     5fc:	19 95       	eicall
     5fe:	ff 91       	pop	r31
     600:	ef 91       	pop	r30
     602:	bf 91       	pop	r27
     604:	af 91       	pop	r26
     606:	9f 91       	pop	r25
     608:	8f 91       	pop	r24
     60a:	7f 91       	pop	r23
     60c:	6f 91       	pop	r22
     60e:	5f 91       	pop	r21
     610:	4f 91       	pop	r20
     612:	3f 91       	pop	r19
     614:	2f 91       	pop	r18
     616:	0f 90       	pop	r0
     618:	0b be       	out	0x3b, r0	; 59
     61a:	0f 90       	pop	r0
     61c:	0f be       	out	0x3f, r0	; 63
     61e:	0f 90       	pop	r0
     620:	1f 90       	pop	r1
     622:	18 95       	reti

00000624 <__vector_22>:
     624:	1f 92       	push	r1
     626:	0f 92       	push	r0
     628:	0f b6       	in	r0, 0x3f	; 63
     62a:	0f 92       	push	r0
     62c:	11 24       	eor	r1, r1
     62e:	0b b6       	in	r0, 0x3b	; 59
     630:	0f 92       	push	r0
     632:	2f 93       	push	r18
     634:	3f 93       	push	r19
     636:	4f 93       	push	r20
     638:	5f 93       	push	r21
     63a:	6f 93       	push	r22
     63c:	7f 93       	push	r23
     63e:	8f 93       	push	r24
     640:	9f 93       	push	r25
     642:	af 93       	push	r26
     644:	bf 93       	push	r27
     646:	ef 93       	push	r30
     648:	ff 93       	push	r31
     64a:	e0 91 36 20 	lds	r30, 0x2036	; 0x802036 <tc_tcc1_cca_callback>
     64e:	f0 91 37 20 	lds	r31, 0x2037	; 0x802037 <tc_tcc1_cca_callback+0x1>
     652:	30 97       	sbiw	r30, 0x00	; 0
     654:	09 f0       	breq	.+2      	; 0x658 <__vector_22+0x34>
     656:	19 95       	eicall
     658:	ff 91       	pop	r31
     65a:	ef 91       	pop	r30
     65c:	bf 91       	pop	r27
     65e:	af 91       	pop	r26
     660:	9f 91       	pop	r25
     662:	8f 91       	pop	r24
     664:	7f 91       	pop	r23
     666:	6f 91       	pop	r22
     668:	5f 91       	pop	r21
     66a:	4f 91       	pop	r20
     66c:	3f 91       	pop	r19
     66e:	2f 91       	pop	r18
     670:	0f 90       	pop	r0
     672:	0b be       	out	0x3b, r0	; 59
     674:	0f 90       	pop	r0
     676:	0f be       	out	0x3f, r0	; 63
     678:	0f 90       	pop	r0
     67a:	1f 90       	pop	r1
     67c:	18 95       	reti

0000067e <__vector_23>:
     67e:	1f 92       	push	r1
     680:	0f 92       	push	r0
     682:	0f b6       	in	r0, 0x3f	; 63
     684:	0f 92       	push	r0
     686:	11 24       	eor	r1, r1
     688:	0b b6       	in	r0, 0x3b	; 59
     68a:	0f 92       	push	r0
     68c:	2f 93       	push	r18
     68e:	3f 93       	push	r19
     690:	4f 93       	push	r20
     692:	5f 93       	push	r21
     694:	6f 93       	push	r22
     696:	7f 93       	push	r23
     698:	8f 93       	push	r24
     69a:	9f 93       	push	r25
     69c:	af 93       	push	r26
     69e:	bf 93       	push	r27
     6a0:	ef 93       	push	r30
     6a2:	ff 93       	push	r31
     6a4:	e0 91 34 20 	lds	r30, 0x2034	; 0x802034 <tc_tcc1_ccb_callback>
     6a8:	f0 91 35 20 	lds	r31, 0x2035	; 0x802035 <tc_tcc1_ccb_callback+0x1>
     6ac:	30 97       	sbiw	r30, 0x00	; 0
     6ae:	09 f0       	breq	.+2      	; 0x6b2 <__vector_23+0x34>
     6b0:	19 95       	eicall
     6b2:	ff 91       	pop	r31
     6b4:	ef 91       	pop	r30
     6b6:	bf 91       	pop	r27
     6b8:	af 91       	pop	r26
     6ba:	9f 91       	pop	r25
     6bc:	8f 91       	pop	r24
     6be:	7f 91       	pop	r23
     6c0:	6f 91       	pop	r22
     6c2:	5f 91       	pop	r21
     6c4:	4f 91       	pop	r20
     6c6:	3f 91       	pop	r19
     6c8:	2f 91       	pop	r18
     6ca:	0f 90       	pop	r0
     6cc:	0b be       	out	0x3b, r0	; 59
     6ce:	0f 90       	pop	r0
     6d0:	0f be       	out	0x3f, r0	; 63
     6d2:	0f 90       	pop	r0
     6d4:	1f 90       	pop	r1
     6d6:	18 95       	reti

000006d8 <__vector_77>:
     6d8:	1f 92       	push	r1
     6da:	0f 92       	push	r0
     6dc:	0f b6       	in	r0, 0x3f	; 63
     6de:	0f 92       	push	r0
     6e0:	11 24       	eor	r1, r1
     6e2:	0b b6       	in	r0, 0x3b	; 59
     6e4:	0f 92       	push	r0
     6e6:	2f 93       	push	r18
     6e8:	3f 93       	push	r19
     6ea:	4f 93       	push	r20
     6ec:	5f 93       	push	r21
     6ee:	6f 93       	push	r22
     6f0:	7f 93       	push	r23
     6f2:	8f 93       	push	r24
     6f4:	9f 93       	push	r25
     6f6:	af 93       	push	r26
     6f8:	bf 93       	push	r27
     6fa:	ef 93       	push	r30
     6fc:	ff 93       	push	r31
     6fe:	e0 91 32 20 	lds	r30, 0x2032	; 0x802032 <tc_tcd0_ovf_callback>
     702:	f0 91 33 20 	lds	r31, 0x2033	; 0x802033 <tc_tcd0_ovf_callback+0x1>
     706:	30 97       	sbiw	r30, 0x00	; 0
     708:	09 f0       	breq	.+2      	; 0x70c <__vector_77+0x34>
     70a:	19 95       	eicall
     70c:	ff 91       	pop	r31
     70e:	ef 91       	pop	r30
     710:	bf 91       	pop	r27
     712:	af 91       	pop	r26
     714:	9f 91       	pop	r25
     716:	8f 91       	pop	r24
     718:	7f 91       	pop	r23
     71a:	6f 91       	pop	r22
     71c:	5f 91       	pop	r21
     71e:	4f 91       	pop	r20
     720:	3f 91       	pop	r19
     722:	2f 91       	pop	r18
     724:	0f 90       	pop	r0
     726:	0b be       	out	0x3b, r0	; 59
     728:	0f 90       	pop	r0
     72a:	0f be       	out	0x3f, r0	; 63
     72c:	0f 90       	pop	r0
     72e:	1f 90       	pop	r1
     730:	18 95       	reti

00000732 <__vector_78>:
     732:	1f 92       	push	r1
     734:	0f 92       	push	r0
     736:	0f b6       	in	r0, 0x3f	; 63
     738:	0f 92       	push	r0
     73a:	11 24       	eor	r1, r1
     73c:	0b b6       	in	r0, 0x3b	; 59
     73e:	0f 92       	push	r0
     740:	2f 93       	push	r18
     742:	3f 93       	push	r19
     744:	4f 93       	push	r20
     746:	5f 93       	push	r21
     748:	6f 93       	push	r22
     74a:	7f 93       	push	r23
     74c:	8f 93       	push	r24
     74e:	9f 93       	push	r25
     750:	af 93       	push	r26
     752:	bf 93       	push	r27
     754:	ef 93       	push	r30
     756:	ff 93       	push	r31
     758:	e0 91 30 20 	lds	r30, 0x2030	; 0x802030 <tc_tcd0_err_callback>
     75c:	f0 91 31 20 	lds	r31, 0x2031	; 0x802031 <tc_tcd0_err_callback+0x1>
     760:	30 97       	sbiw	r30, 0x00	; 0
     762:	09 f0       	breq	.+2      	; 0x766 <__vector_78+0x34>
     764:	19 95       	eicall
     766:	ff 91       	pop	r31
     768:	ef 91       	pop	r30
     76a:	bf 91       	pop	r27
     76c:	af 91       	pop	r26
     76e:	9f 91       	pop	r25
     770:	8f 91       	pop	r24
     772:	7f 91       	pop	r23
     774:	6f 91       	pop	r22
     776:	5f 91       	pop	r21
     778:	4f 91       	pop	r20
     77a:	3f 91       	pop	r19
     77c:	2f 91       	pop	r18
     77e:	0f 90       	pop	r0
     780:	0b be       	out	0x3b, r0	; 59
     782:	0f 90       	pop	r0
     784:	0f be       	out	0x3f, r0	; 63
     786:	0f 90       	pop	r0
     788:	1f 90       	pop	r1
     78a:	18 95       	reti

0000078c <__vector_79>:
     78c:	1f 92       	push	r1
     78e:	0f 92       	push	r0
     790:	0f b6       	in	r0, 0x3f	; 63
     792:	0f 92       	push	r0
     794:	11 24       	eor	r1, r1
     796:	0b b6       	in	r0, 0x3b	; 59
     798:	0f 92       	push	r0
     79a:	2f 93       	push	r18
     79c:	3f 93       	push	r19
     79e:	4f 93       	push	r20
     7a0:	5f 93       	push	r21
     7a2:	6f 93       	push	r22
     7a4:	7f 93       	push	r23
     7a6:	8f 93       	push	r24
     7a8:	9f 93       	push	r25
     7aa:	af 93       	push	r26
     7ac:	bf 93       	push	r27
     7ae:	ef 93       	push	r30
     7b0:	ff 93       	push	r31
     7b2:	e0 91 2e 20 	lds	r30, 0x202E	; 0x80202e <tc_tcd0_cca_callback>
     7b6:	f0 91 2f 20 	lds	r31, 0x202F	; 0x80202f <tc_tcd0_cca_callback+0x1>
     7ba:	30 97       	sbiw	r30, 0x00	; 0
     7bc:	09 f0       	breq	.+2      	; 0x7c0 <__vector_79+0x34>
     7be:	19 95       	eicall
     7c0:	ff 91       	pop	r31
     7c2:	ef 91       	pop	r30
     7c4:	bf 91       	pop	r27
     7c6:	af 91       	pop	r26
     7c8:	9f 91       	pop	r25
     7ca:	8f 91       	pop	r24
     7cc:	7f 91       	pop	r23
     7ce:	6f 91       	pop	r22
     7d0:	5f 91       	pop	r21
     7d2:	4f 91       	pop	r20
     7d4:	3f 91       	pop	r19
     7d6:	2f 91       	pop	r18
     7d8:	0f 90       	pop	r0
     7da:	0b be       	out	0x3b, r0	; 59
     7dc:	0f 90       	pop	r0
     7de:	0f be       	out	0x3f, r0	; 63
     7e0:	0f 90       	pop	r0
     7e2:	1f 90       	pop	r1
     7e4:	18 95       	reti

000007e6 <__vector_80>:
     7e6:	1f 92       	push	r1
     7e8:	0f 92       	push	r0
     7ea:	0f b6       	in	r0, 0x3f	; 63
     7ec:	0f 92       	push	r0
     7ee:	11 24       	eor	r1, r1
     7f0:	0b b6       	in	r0, 0x3b	; 59
     7f2:	0f 92       	push	r0
     7f4:	2f 93       	push	r18
     7f6:	3f 93       	push	r19
     7f8:	4f 93       	push	r20
     7fa:	5f 93       	push	r21
     7fc:	6f 93       	push	r22
     7fe:	7f 93       	push	r23
     800:	8f 93       	push	r24
     802:	9f 93       	push	r25
     804:	af 93       	push	r26
     806:	bf 93       	push	r27
     808:	ef 93       	push	r30
     80a:	ff 93       	push	r31
     80c:	e0 91 2c 20 	lds	r30, 0x202C	; 0x80202c <tc_tcd0_ccb_callback>
     810:	f0 91 2d 20 	lds	r31, 0x202D	; 0x80202d <tc_tcd0_ccb_callback+0x1>
     814:	30 97       	sbiw	r30, 0x00	; 0
     816:	09 f0       	breq	.+2      	; 0x81a <__vector_80+0x34>
     818:	19 95       	eicall
     81a:	ff 91       	pop	r31
     81c:	ef 91       	pop	r30
     81e:	bf 91       	pop	r27
     820:	af 91       	pop	r26
     822:	9f 91       	pop	r25
     824:	8f 91       	pop	r24
     826:	7f 91       	pop	r23
     828:	6f 91       	pop	r22
     82a:	5f 91       	pop	r21
     82c:	4f 91       	pop	r20
     82e:	3f 91       	pop	r19
     830:	2f 91       	pop	r18
     832:	0f 90       	pop	r0
     834:	0b be       	out	0x3b, r0	; 59
     836:	0f 90       	pop	r0
     838:	0f be       	out	0x3f, r0	; 63
     83a:	0f 90       	pop	r0
     83c:	1f 90       	pop	r1
     83e:	18 95       	reti

00000840 <__vector_81>:
     840:	1f 92       	push	r1
     842:	0f 92       	push	r0
     844:	0f b6       	in	r0, 0x3f	; 63
     846:	0f 92       	push	r0
     848:	11 24       	eor	r1, r1
     84a:	0b b6       	in	r0, 0x3b	; 59
     84c:	0f 92       	push	r0
     84e:	2f 93       	push	r18
     850:	3f 93       	push	r19
     852:	4f 93       	push	r20
     854:	5f 93       	push	r21
     856:	6f 93       	push	r22
     858:	7f 93       	push	r23
     85a:	8f 93       	push	r24
     85c:	9f 93       	push	r25
     85e:	af 93       	push	r26
     860:	bf 93       	push	r27
     862:	ef 93       	push	r30
     864:	ff 93       	push	r31
     866:	e0 91 2a 20 	lds	r30, 0x202A	; 0x80202a <tc_tcd0_ccc_callback>
     86a:	f0 91 2b 20 	lds	r31, 0x202B	; 0x80202b <tc_tcd0_ccc_callback+0x1>
     86e:	30 97       	sbiw	r30, 0x00	; 0
     870:	09 f0       	breq	.+2      	; 0x874 <__vector_81+0x34>
     872:	19 95       	eicall
     874:	ff 91       	pop	r31
     876:	ef 91       	pop	r30
     878:	bf 91       	pop	r27
     87a:	af 91       	pop	r26
     87c:	9f 91       	pop	r25
     87e:	8f 91       	pop	r24
     880:	7f 91       	pop	r23
     882:	6f 91       	pop	r22
     884:	5f 91       	pop	r21
     886:	4f 91       	pop	r20
     888:	3f 91       	pop	r19
     88a:	2f 91       	pop	r18
     88c:	0f 90       	pop	r0
     88e:	0b be       	out	0x3b, r0	; 59
     890:	0f 90       	pop	r0
     892:	0f be       	out	0x3f, r0	; 63
     894:	0f 90       	pop	r0
     896:	1f 90       	pop	r1
     898:	18 95       	reti

0000089a <__vector_82>:
     89a:	1f 92       	push	r1
     89c:	0f 92       	push	r0
     89e:	0f b6       	in	r0, 0x3f	; 63
     8a0:	0f 92       	push	r0
     8a2:	11 24       	eor	r1, r1
     8a4:	0b b6       	in	r0, 0x3b	; 59
     8a6:	0f 92       	push	r0
     8a8:	2f 93       	push	r18
     8aa:	3f 93       	push	r19
     8ac:	4f 93       	push	r20
     8ae:	5f 93       	push	r21
     8b0:	6f 93       	push	r22
     8b2:	7f 93       	push	r23
     8b4:	8f 93       	push	r24
     8b6:	9f 93       	push	r25
     8b8:	af 93       	push	r26
     8ba:	bf 93       	push	r27
     8bc:	ef 93       	push	r30
     8be:	ff 93       	push	r31
     8c0:	e0 91 28 20 	lds	r30, 0x2028	; 0x802028 <tc_tcd0_ccd_callback>
     8c4:	f0 91 29 20 	lds	r31, 0x2029	; 0x802029 <tc_tcd0_ccd_callback+0x1>
     8c8:	30 97       	sbiw	r30, 0x00	; 0
     8ca:	09 f0       	breq	.+2      	; 0x8ce <__vector_82+0x34>
     8cc:	19 95       	eicall
     8ce:	ff 91       	pop	r31
     8d0:	ef 91       	pop	r30
     8d2:	bf 91       	pop	r27
     8d4:	af 91       	pop	r26
     8d6:	9f 91       	pop	r25
     8d8:	8f 91       	pop	r24
     8da:	7f 91       	pop	r23
     8dc:	6f 91       	pop	r22
     8de:	5f 91       	pop	r21
     8e0:	4f 91       	pop	r20
     8e2:	3f 91       	pop	r19
     8e4:	2f 91       	pop	r18
     8e6:	0f 90       	pop	r0
     8e8:	0b be       	out	0x3b, r0	; 59
     8ea:	0f 90       	pop	r0
     8ec:	0f be       	out	0x3f, r0	; 63
     8ee:	0f 90       	pop	r0
     8f0:	1f 90       	pop	r1
     8f2:	18 95       	reti

000008f4 <__vector_83>:
     8f4:	1f 92       	push	r1
     8f6:	0f 92       	push	r0
     8f8:	0f b6       	in	r0, 0x3f	; 63
     8fa:	0f 92       	push	r0
     8fc:	11 24       	eor	r1, r1
     8fe:	0b b6       	in	r0, 0x3b	; 59
     900:	0f 92       	push	r0
     902:	2f 93       	push	r18
     904:	3f 93       	push	r19
     906:	4f 93       	push	r20
     908:	5f 93       	push	r21
     90a:	6f 93       	push	r22
     90c:	7f 93       	push	r23
     90e:	8f 93       	push	r24
     910:	9f 93       	push	r25
     912:	af 93       	push	r26
     914:	bf 93       	push	r27
     916:	ef 93       	push	r30
     918:	ff 93       	push	r31
     91a:	e0 91 26 20 	lds	r30, 0x2026	; 0x802026 <tc_tcd1_ovf_callback>
     91e:	f0 91 27 20 	lds	r31, 0x2027	; 0x802027 <tc_tcd1_ovf_callback+0x1>
     922:	30 97       	sbiw	r30, 0x00	; 0
     924:	09 f0       	breq	.+2      	; 0x928 <__vector_83+0x34>
     926:	19 95       	eicall
     928:	ff 91       	pop	r31
     92a:	ef 91       	pop	r30
     92c:	bf 91       	pop	r27
     92e:	af 91       	pop	r26
     930:	9f 91       	pop	r25
     932:	8f 91       	pop	r24
     934:	7f 91       	pop	r23
     936:	6f 91       	pop	r22
     938:	5f 91       	pop	r21
     93a:	4f 91       	pop	r20
     93c:	3f 91       	pop	r19
     93e:	2f 91       	pop	r18
     940:	0f 90       	pop	r0
     942:	0b be       	out	0x3b, r0	; 59
     944:	0f 90       	pop	r0
     946:	0f be       	out	0x3f, r0	; 63
     948:	0f 90       	pop	r0
     94a:	1f 90       	pop	r1
     94c:	18 95       	reti

0000094e <__vector_84>:
     94e:	1f 92       	push	r1
     950:	0f 92       	push	r0
     952:	0f b6       	in	r0, 0x3f	; 63
     954:	0f 92       	push	r0
     956:	11 24       	eor	r1, r1
     958:	0b b6       	in	r0, 0x3b	; 59
     95a:	0f 92       	push	r0
     95c:	2f 93       	push	r18
     95e:	3f 93       	push	r19
     960:	4f 93       	push	r20
     962:	5f 93       	push	r21
     964:	6f 93       	push	r22
     966:	7f 93       	push	r23
     968:	8f 93       	push	r24
     96a:	9f 93       	push	r25
     96c:	af 93       	push	r26
     96e:	bf 93       	push	r27
     970:	ef 93       	push	r30
     972:	ff 93       	push	r31
     974:	e0 91 24 20 	lds	r30, 0x2024	; 0x802024 <tc_tcd1_err_callback>
     978:	f0 91 25 20 	lds	r31, 0x2025	; 0x802025 <tc_tcd1_err_callback+0x1>
     97c:	30 97       	sbiw	r30, 0x00	; 0
     97e:	09 f0       	breq	.+2      	; 0x982 <__vector_84+0x34>
     980:	19 95       	eicall
     982:	ff 91       	pop	r31
     984:	ef 91       	pop	r30
     986:	bf 91       	pop	r27
     988:	af 91       	pop	r26
     98a:	9f 91       	pop	r25
     98c:	8f 91       	pop	r24
     98e:	7f 91       	pop	r23
     990:	6f 91       	pop	r22
     992:	5f 91       	pop	r21
     994:	4f 91       	pop	r20
     996:	3f 91       	pop	r19
     998:	2f 91       	pop	r18
     99a:	0f 90       	pop	r0
     99c:	0b be       	out	0x3b, r0	; 59
     99e:	0f 90       	pop	r0
     9a0:	0f be       	out	0x3f, r0	; 63
     9a2:	0f 90       	pop	r0
     9a4:	1f 90       	pop	r1
     9a6:	18 95       	reti

000009a8 <__vector_85>:
     9a8:	1f 92       	push	r1
     9aa:	0f 92       	push	r0
     9ac:	0f b6       	in	r0, 0x3f	; 63
     9ae:	0f 92       	push	r0
     9b0:	11 24       	eor	r1, r1
     9b2:	0b b6       	in	r0, 0x3b	; 59
     9b4:	0f 92       	push	r0
     9b6:	2f 93       	push	r18
     9b8:	3f 93       	push	r19
     9ba:	4f 93       	push	r20
     9bc:	5f 93       	push	r21
     9be:	6f 93       	push	r22
     9c0:	7f 93       	push	r23
     9c2:	8f 93       	push	r24
     9c4:	9f 93       	push	r25
     9c6:	af 93       	push	r26
     9c8:	bf 93       	push	r27
     9ca:	ef 93       	push	r30
     9cc:	ff 93       	push	r31
     9ce:	e0 91 22 20 	lds	r30, 0x2022	; 0x802022 <tc_tcd1_cca_callback>
     9d2:	f0 91 23 20 	lds	r31, 0x2023	; 0x802023 <tc_tcd1_cca_callback+0x1>
     9d6:	30 97       	sbiw	r30, 0x00	; 0
     9d8:	09 f0       	breq	.+2      	; 0x9dc <__vector_85+0x34>
     9da:	19 95       	eicall
     9dc:	ff 91       	pop	r31
     9de:	ef 91       	pop	r30
     9e0:	bf 91       	pop	r27
     9e2:	af 91       	pop	r26
     9e4:	9f 91       	pop	r25
     9e6:	8f 91       	pop	r24
     9e8:	7f 91       	pop	r23
     9ea:	6f 91       	pop	r22
     9ec:	5f 91       	pop	r21
     9ee:	4f 91       	pop	r20
     9f0:	3f 91       	pop	r19
     9f2:	2f 91       	pop	r18
     9f4:	0f 90       	pop	r0
     9f6:	0b be       	out	0x3b, r0	; 59
     9f8:	0f 90       	pop	r0
     9fa:	0f be       	out	0x3f, r0	; 63
     9fc:	0f 90       	pop	r0
     9fe:	1f 90       	pop	r1
     a00:	18 95       	reti

00000a02 <__vector_86>:
     a02:	1f 92       	push	r1
     a04:	0f 92       	push	r0
     a06:	0f b6       	in	r0, 0x3f	; 63
     a08:	0f 92       	push	r0
     a0a:	11 24       	eor	r1, r1
     a0c:	0b b6       	in	r0, 0x3b	; 59
     a0e:	0f 92       	push	r0
     a10:	2f 93       	push	r18
     a12:	3f 93       	push	r19
     a14:	4f 93       	push	r20
     a16:	5f 93       	push	r21
     a18:	6f 93       	push	r22
     a1a:	7f 93       	push	r23
     a1c:	8f 93       	push	r24
     a1e:	9f 93       	push	r25
     a20:	af 93       	push	r26
     a22:	bf 93       	push	r27
     a24:	ef 93       	push	r30
     a26:	ff 93       	push	r31
     a28:	e0 91 20 20 	lds	r30, 0x2020	; 0x802020 <tc_tcd1_ccb_callback>
     a2c:	f0 91 21 20 	lds	r31, 0x2021	; 0x802021 <tc_tcd1_ccb_callback+0x1>
     a30:	30 97       	sbiw	r30, 0x00	; 0
     a32:	09 f0       	breq	.+2      	; 0xa36 <__vector_86+0x34>
     a34:	19 95       	eicall
     a36:	ff 91       	pop	r31
     a38:	ef 91       	pop	r30
     a3a:	bf 91       	pop	r27
     a3c:	af 91       	pop	r26
     a3e:	9f 91       	pop	r25
     a40:	8f 91       	pop	r24
     a42:	7f 91       	pop	r23
     a44:	6f 91       	pop	r22
     a46:	5f 91       	pop	r21
     a48:	4f 91       	pop	r20
     a4a:	3f 91       	pop	r19
     a4c:	2f 91       	pop	r18
     a4e:	0f 90       	pop	r0
     a50:	0b be       	out	0x3b, r0	; 59
     a52:	0f 90       	pop	r0
     a54:	0f be       	out	0x3f, r0	; 63
     a56:	0f 90       	pop	r0
     a58:	1f 90       	pop	r1
     a5a:	18 95       	reti

00000a5c <__vector_47>:
     a5c:	1f 92       	push	r1
     a5e:	0f 92       	push	r0
     a60:	0f b6       	in	r0, 0x3f	; 63
     a62:	0f 92       	push	r0
     a64:	11 24       	eor	r1, r1
     a66:	0b b6       	in	r0, 0x3b	; 59
     a68:	0f 92       	push	r0
     a6a:	2f 93       	push	r18
     a6c:	3f 93       	push	r19
     a6e:	4f 93       	push	r20
     a70:	5f 93       	push	r21
     a72:	6f 93       	push	r22
     a74:	7f 93       	push	r23
     a76:	8f 93       	push	r24
     a78:	9f 93       	push	r25
     a7a:	af 93       	push	r26
     a7c:	bf 93       	push	r27
     a7e:	ef 93       	push	r30
     a80:	ff 93       	push	r31
     a82:	e0 91 1e 20 	lds	r30, 0x201E	; 0x80201e <tc_tce0_ovf_callback>
     a86:	f0 91 1f 20 	lds	r31, 0x201F	; 0x80201f <tc_tce0_ovf_callback+0x1>
     a8a:	30 97       	sbiw	r30, 0x00	; 0
     a8c:	09 f0       	breq	.+2      	; 0xa90 <__vector_47+0x34>
     a8e:	19 95       	eicall
     a90:	ff 91       	pop	r31
     a92:	ef 91       	pop	r30
     a94:	bf 91       	pop	r27
     a96:	af 91       	pop	r26
     a98:	9f 91       	pop	r25
     a9a:	8f 91       	pop	r24
     a9c:	7f 91       	pop	r23
     a9e:	6f 91       	pop	r22
     aa0:	5f 91       	pop	r21
     aa2:	4f 91       	pop	r20
     aa4:	3f 91       	pop	r19
     aa6:	2f 91       	pop	r18
     aa8:	0f 90       	pop	r0
     aaa:	0b be       	out	0x3b, r0	; 59
     aac:	0f 90       	pop	r0
     aae:	0f be       	out	0x3f, r0	; 63
     ab0:	0f 90       	pop	r0
     ab2:	1f 90       	pop	r1
     ab4:	18 95       	reti

00000ab6 <__vector_48>:
     ab6:	1f 92       	push	r1
     ab8:	0f 92       	push	r0
     aba:	0f b6       	in	r0, 0x3f	; 63
     abc:	0f 92       	push	r0
     abe:	11 24       	eor	r1, r1
     ac0:	0b b6       	in	r0, 0x3b	; 59
     ac2:	0f 92       	push	r0
     ac4:	2f 93       	push	r18
     ac6:	3f 93       	push	r19
     ac8:	4f 93       	push	r20
     aca:	5f 93       	push	r21
     acc:	6f 93       	push	r22
     ace:	7f 93       	push	r23
     ad0:	8f 93       	push	r24
     ad2:	9f 93       	push	r25
     ad4:	af 93       	push	r26
     ad6:	bf 93       	push	r27
     ad8:	ef 93       	push	r30
     ada:	ff 93       	push	r31
     adc:	e0 91 1c 20 	lds	r30, 0x201C	; 0x80201c <tc_tce0_err_callback>
     ae0:	f0 91 1d 20 	lds	r31, 0x201D	; 0x80201d <tc_tce0_err_callback+0x1>
     ae4:	30 97       	sbiw	r30, 0x00	; 0
     ae6:	09 f0       	breq	.+2      	; 0xaea <__vector_48+0x34>
     ae8:	19 95       	eicall
     aea:	ff 91       	pop	r31
     aec:	ef 91       	pop	r30
     aee:	bf 91       	pop	r27
     af0:	af 91       	pop	r26
     af2:	9f 91       	pop	r25
     af4:	8f 91       	pop	r24
     af6:	7f 91       	pop	r23
     af8:	6f 91       	pop	r22
     afa:	5f 91       	pop	r21
     afc:	4f 91       	pop	r20
     afe:	3f 91       	pop	r19
     b00:	2f 91       	pop	r18
     b02:	0f 90       	pop	r0
     b04:	0b be       	out	0x3b, r0	; 59
     b06:	0f 90       	pop	r0
     b08:	0f be       	out	0x3f, r0	; 63
     b0a:	0f 90       	pop	r0
     b0c:	1f 90       	pop	r1
     b0e:	18 95       	reti

00000b10 <__vector_49>:
     b10:	1f 92       	push	r1
     b12:	0f 92       	push	r0
     b14:	0f b6       	in	r0, 0x3f	; 63
     b16:	0f 92       	push	r0
     b18:	11 24       	eor	r1, r1
     b1a:	0b b6       	in	r0, 0x3b	; 59
     b1c:	0f 92       	push	r0
     b1e:	2f 93       	push	r18
     b20:	3f 93       	push	r19
     b22:	4f 93       	push	r20
     b24:	5f 93       	push	r21
     b26:	6f 93       	push	r22
     b28:	7f 93       	push	r23
     b2a:	8f 93       	push	r24
     b2c:	9f 93       	push	r25
     b2e:	af 93       	push	r26
     b30:	bf 93       	push	r27
     b32:	ef 93       	push	r30
     b34:	ff 93       	push	r31
     b36:	e0 91 1a 20 	lds	r30, 0x201A	; 0x80201a <tc_tce0_cca_callback>
     b3a:	f0 91 1b 20 	lds	r31, 0x201B	; 0x80201b <tc_tce0_cca_callback+0x1>
     b3e:	30 97       	sbiw	r30, 0x00	; 0
     b40:	09 f0       	breq	.+2      	; 0xb44 <__vector_49+0x34>
     b42:	19 95       	eicall
     b44:	ff 91       	pop	r31
     b46:	ef 91       	pop	r30
     b48:	bf 91       	pop	r27
     b4a:	af 91       	pop	r26
     b4c:	9f 91       	pop	r25
     b4e:	8f 91       	pop	r24
     b50:	7f 91       	pop	r23
     b52:	6f 91       	pop	r22
     b54:	5f 91       	pop	r21
     b56:	4f 91       	pop	r20
     b58:	3f 91       	pop	r19
     b5a:	2f 91       	pop	r18
     b5c:	0f 90       	pop	r0
     b5e:	0b be       	out	0x3b, r0	; 59
     b60:	0f 90       	pop	r0
     b62:	0f be       	out	0x3f, r0	; 63
     b64:	0f 90       	pop	r0
     b66:	1f 90       	pop	r1
     b68:	18 95       	reti

00000b6a <__vector_50>:
     b6a:	1f 92       	push	r1
     b6c:	0f 92       	push	r0
     b6e:	0f b6       	in	r0, 0x3f	; 63
     b70:	0f 92       	push	r0
     b72:	11 24       	eor	r1, r1
     b74:	0b b6       	in	r0, 0x3b	; 59
     b76:	0f 92       	push	r0
     b78:	2f 93       	push	r18
     b7a:	3f 93       	push	r19
     b7c:	4f 93       	push	r20
     b7e:	5f 93       	push	r21
     b80:	6f 93       	push	r22
     b82:	7f 93       	push	r23
     b84:	8f 93       	push	r24
     b86:	9f 93       	push	r25
     b88:	af 93       	push	r26
     b8a:	bf 93       	push	r27
     b8c:	ef 93       	push	r30
     b8e:	ff 93       	push	r31
     b90:	e0 91 18 20 	lds	r30, 0x2018	; 0x802018 <tc_tce0_ccb_callback>
     b94:	f0 91 19 20 	lds	r31, 0x2019	; 0x802019 <tc_tce0_ccb_callback+0x1>
     b98:	30 97       	sbiw	r30, 0x00	; 0
     b9a:	09 f0       	breq	.+2      	; 0xb9e <__vector_50+0x34>
     b9c:	19 95       	eicall
     b9e:	ff 91       	pop	r31
     ba0:	ef 91       	pop	r30
     ba2:	bf 91       	pop	r27
     ba4:	af 91       	pop	r26
     ba6:	9f 91       	pop	r25
     ba8:	8f 91       	pop	r24
     baa:	7f 91       	pop	r23
     bac:	6f 91       	pop	r22
     bae:	5f 91       	pop	r21
     bb0:	4f 91       	pop	r20
     bb2:	3f 91       	pop	r19
     bb4:	2f 91       	pop	r18
     bb6:	0f 90       	pop	r0
     bb8:	0b be       	out	0x3b, r0	; 59
     bba:	0f 90       	pop	r0
     bbc:	0f be       	out	0x3f, r0	; 63
     bbe:	0f 90       	pop	r0
     bc0:	1f 90       	pop	r1
     bc2:	18 95       	reti

00000bc4 <__vector_51>:
     bc4:	1f 92       	push	r1
     bc6:	0f 92       	push	r0
     bc8:	0f b6       	in	r0, 0x3f	; 63
     bca:	0f 92       	push	r0
     bcc:	11 24       	eor	r1, r1
     bce:	0b b6       	in	r0, 0x3b	; 59
     bd0:	0f 92       	push	r0
     bd2:	2f 93       	push	r18
     bd4:	3f 93       	push	r19
     bd6:	4f 93       	push	r20
     bd8:	5f 93       	push	r21
     bda:	6f 93       	push	r22
     bdc:	7f 93       	push	r23
     bde:	8f 93       	push	r24
     be0:	9f 93       	push	r25
     be2:	af 93       	push	r26
     be4:	bf 93       	push	r27
     be6:	ef 93       	push	r30
     be8:	ff 93       	push	r31
     bea:	e0 91 16 20 	lds	r30, 0x2016	; 0x802016 <tc_tce0_ccc_callback>
     bee:	f0 91 17 20 	lds	r31, 0x2017	; 0x802017 <tc_tce0_ccc_callback+0x1>
     bf2:	30 97       	sbiw	r30, 0x00	; 0
     bf4:	09 f0       	breq	.+2      	; 0xbf8 <__vector_51+0x34>
     bf6:	19 95       	eicall
     bf8:	ff 91       	pop	r31
     bfa:	ef 91       	pop	r30
     bfc:	bf 91       	pop	r27
     bfe:	af 91       	pop	r26
     c00:	9f 91       	pop	r25
     c02:	8f 91       	pop	r24
     c04:	7f 91       	pop	r23
     c06:	6f 91       	pop	r22
     c08:	5f 91       	pop	r21
     c0a:	4f 91       	pop	r20
     c0c:	3f 91       	pop	r19
     c0e:	2f 91       	pop	r18
     c10:	0f 90       	pop	r0
     c12:	0b be       	out	0x3b, r0	; 59
     c14:	0f 90       	pop	r0
     c16:	0f be       	out	0x3f, r0	; 63
     c18:	0f 90       	pop	r0
     c1a:	1f 90       	pop	r1
     c1c:	18 95       	reti

00000c1e <__vector_52>:
     c1e:	1f 92       	push	r1
     c20:	0f 92       	push	r0
     c22:	0f b6       	in	r0, 0x3f	; 63
     c24:	0f 92       	push	r0
     c26:	11 24       	eor	r1, r1
     c28:	0b b6       	in	r0, 0x3b	; 59
     c2a:	0f 92       	push	r0
     c2c:	2f 93       	push	r18
     c2e:	3f 93       	push	r19
     c30:	4f 93       	push	r20
     c32:	5f 93       	push	r21
     c34:	6f 93       	push	r22
     c36:	7f 93       	push	r23
     c38:	8f 93       	push	r24
     c3a:	9f 93       	push	r25
     c3c:	af 93       	push	r26
     c3e:	bf 93       	push	r27
     c40:	ef 93       	push	r30
     c42:	ff 93       	push	r31
     c44:	e0 91 14 20 	lds	r30, 0x2014	; 0x802014 <tc_tce0_ccd_callback>
     c48:	f0 91 15 20 	lds	r31, 0x2015	; 0x802015 <tc_tce0_ccd_callback+0x1>
     c4c:	30 97       	sbiw	r30, 0x00	; 0
     c4e:	09 f0       	breq	.+2      	; 0xc52 <__vector_52+0x34>
     c50:	19 95       	eicall
     c52:	ff 91       	pop	r31
     c54:	ef 91       	pop	r30
     c56:	bf 91       	pop	r27
     c58:	af 91       	pop	r26
     c5a:	9f 91       	pop	r25
     c5c:	8f 91       	pop	r24
     c5e:	7f 91       	pop	r23
     c60:	6f 91       	pop	r22
     c62:	5f 91       	pop	r21
     c64:	4f 91       	pop	r20
     c66:	3f 91       	pop	r19
     c68:	2f 91       	pop	r18
     c6a:	0f 90       	pop	r0
     c6c:	0b be       	out	0x3b, r0	; 59
     c6e:	0f 90       	pop	r0
     c70:	0f be       	out	0x3f, r0	; 63
     c72:	0f 90       	pop	r0
     c74:	1f 90       	pop	r1
     c76:	18 95       	reti

00000c78 <__vector_53>:
     c78:	1f 92       	push	r1
     c7a:	0f 92       	push	r0
     c7c:	0f b6       	in	r0, 0x3f	; 63
     c7e:	0f 92       	push	r0
     c80:	11 24       	eor	r1, r1
     c82:	0b b6       	in	r0, 0x3b	; 59
     c84:	0f 92       	push	r0
     c86:	2f 93       	push	r18
     c88:	3f 93       	push	r19
     c8a:	4f 93       	push	r20
     c8c:	5f 93       	push	r21
     c8e:	6f 93       	push	r22
     c90:	7f 93       	push	r23
     c92:	8f 93       	push	r24
     c94:	9f 93       	push	r25
     c96:	af 93       	push	r26
     c98:	bf 93       	push	r27
     c9a:	ef 93       	push	r30
     c9c:	ff 93       	push	r31
     c9e:	e0 91 12 20 	lds	r30, 0x2012	; 0x802012 <tc_tce1_ovf_callback>
     ca2:	f0 91 13 20 	lds	r31, 0x2013	; 0x802013 <tc_tce1_ovf_callback+0x1>
     ca6:	30 97       	sbiw	r30, 0x00	; 0
     ca8:	09 f0       	breq	.+2      	; 0xcac <__vector_53+0x34>
     caa:	19 95       	eicall
     cac:	ff 91       	pop	r31
     cae:	ef 91       	pop	r30
     cb0:	bf 91       	pop	r27
     cb2:	af 91       	pop	r26
     cb4:	9f 91       	pop	r25
     cb6:	8f 91       	pop	r24
     cb8:	7f 91       	pop	r23
     cba:	6f 91       	pop	r22
     cbc:	5f 91       	pop	r21
     cbe:	4f 91       	pop	r20
     cc0:	3f 91       	pop	r19
     cc2:	2f 91       	pop	r18
     cc4:	0f 90       	pop	r0
     cc6:	0b be       	out	0x3b, r0	; 59
     cc8:	0f 90       	pop	r0
     cca:	0f be       	out	0x3f, r0	; 63
     ccc:	0f 90       	pop	r0
     cce:	1f 90       	pop	r1
     cd0:	18 95       	reti

00000cd2 <__vector_54>:
     cd2:	1f 92       	push	r1
     cd4:	0f 92       	push	r0
     cd6:	0f b6       	in	r0, 0x3f	; 63
     cd8:	0f 92       	push	r0
     cda:	11 24       	eor	r1, r1
     cdc:	0b b6       	in	r0, 0x3b	; 59
     cde:	0f 92       	push	r0
     ce0:	2f 93       	push	r18
     ce2:	3f 93       	push	r19
     ce4:	4f 93       	push	r20
     ce6:	5f 93       	push	r21
     ce8:	6f 93       	push	r22
     cea:	7f 93       	push	r23
     cec:	8f 93       	push	r24
     cee:	9f 93       	push	r25
     cf0:	af 93       	push	r26
     cf2:	bf 93       	push	r27
     cf4:	ef 93       	push	r30
     cf6:	ff 93       	push	r31
     cf8:	e0 91 10 20 	lds	r30, 0x2010	; 0x802010 <tc_tce1_err_callback>
     cfc:	f0 91 11 20 	lds	r31, 0x2011	; 0x802011 <tc_tce1_err_callback+0x1>
     d00:	30 97       	sbiw	r30, 0x00	; 0
     d02:	09 f0       	breq	.+2      	; 0xd06 <__vector_54+0x34>
     d04:	19 95       	eicall
     d06:	ff 91       	pop	r31
     d08:	ef 91       	pop	r30
     d0a:	bf 91       	pop	r27
     d0c:	af 91       	pop	r26
     d0e:	9f 91       	pop	r25
     d10:	8f 91       	pop	r24
     d12:	7f 91       	pop	r23
     d14:	6f 91       	pop	r22
     d16:	5f 91       	pop	r21
     d18:	4f 91       	pop	r20
     d1a:	3f 91       	pop	r19
     d1c:	2f 91       	pop	r18
     d1e:	0f 90       	pop	r0
     d20:	0b be       	out	0x3b, r0	; 59
     d22:	0f 90       	pop	r0
     d24:	0f be       	out	0x3f, r0	; 63
     d26:	0f 90       	pop	r0
     d28:	1f 90       	pop	r1
     d2a:	18 95       	reti

00000d2c <__vector_55>:
     d2c:	1f 92       	push	r1
     d2e:	0f 92       	push	r0
     d30:	0f b6       	in	r0, 0x3f	; 63
     d32:	0f 92       	push	r0
     d34:	11 24       	eor	r1, r1
     d36:	0b b6       	in	r0, 0x3b	; 59
     d38:	0f 92       	push	r0
     d3a:	2f 93       	push	r18
     d3c:	3f 93       	push	r19
     d3e:	4f 93       	push	r20
     d40:	5f 93       	push	r21
     d42:	6f 93       	push	r22
     d44:	7f 93       	push	r23
     d46:	8f 93       	push	r24
     d48:	9f 93       	push	r25
     d4a:	af 93       	push	r26
     d4c:	bf 93       	push	r27
     d4e:	ef 93       	push	r30
     d50:	ff 93       	push	r31
     d52:	e0 91 0e 20 	lds	r30, 0x200E	; 0x80200e <tc_tce1_cca_callback>
     d56:	f0 91 0f 20 	lds	r31, 0x200F	; 0x80200f <tc_tce1_cca_callback+0x1>
     d5a:	30 97       	sbiw	r30, 0x00	; 0
     d5c:	09 f0       	breq	.+2      	; 0xd60 <__vector_55+0x34>
     d5e:	19 95       	eicall
     d60:	ff 91       	pop	r31
     d62:	ef 91       	pop	r30
     d64:	bf 91       	pop	r27
     d66:	af 91       	pop	r26
     d68:	9f 91       	pop	r25
     d6a:	8f 91       	pop	r24
     d6c:	7f 91       	pop	r23
     d6e:	6f 91       	pop	r22
     d70:	5f 91       	pop	r21
     d72:	4f 91       	pop	r20
     d74:	3f 91       	pop	r19
     d76:	2f 91       	pop	r18
     d78:	0f 90       	pop	r0
     d7a:	0b be       	out	0x3b, r0	; 59
     d7c:	0f 90       	pop	r0
     d7e:	0f be       	out	0x3f, r0	; 63
     d80:	0f 90       	pop	r0
     d82:	1f 90       	pop	r1
     d84:	18 95       	reti

00000d86 <__vector_56>:
     d86:	1f 92       	push	r1
     d88:	0f 92       	push	r0
     d8a:	0f b6       	in	r0, 0x3f	; 63
     d8c:	0f 92       	push	r0
     d8e:	11 24       	eor	r1, r1
     d90:	0b b6       	in	r0, 0x3b	; 59
     d92:	0f 92       	push	r0
     d94:	2f 93       	push	r18
     d96:	3f 93       	push	r19
     d98:	4f 93       	push	r20
     d9a:	5f 93       	push	r21
     d9c:	6f 93       	push	r22
     d9e:	7f 93       	push	r23
     da0:	8f 93       	push	r24
     da2:	9f 93       	push	r25
     da4:	af 93       	push	r26
     da6:	bf 93       	push	r27
     da8:	ef 93       	push	r30
     daa:	ff 93       	push	r31
     dac:	e0 91 0c 20 	lds	r30, 0x200C	; 0x80200c <tc_tce1_ccb_callback>
     db0:	f0 91 0d 20 	lds	r31, 0x200D	; 0x80200d <tc_tce1_ccb_callback+0x1>
     db4:	30 97       	sbiw	r30, 0x00	; 0
     db6:	09 f0       	breq	.+2      	; 0xdba <__vector_56+0x34>
     db8:	19 95       	eicall
     dba:	ff 91       	pop	r31
     dbc:	ef 91       	pop	r30
     dbe:	bf 91       	pop	r27
     dc0:	af 91       	pop	r26
     dc2:	9f 91       	pop	r25
     dc4:	8f 91       	pop	r24
     dc6:	7f 91       	pop	r23
     dc8:	6f 91       	pop	r22
     dca:	5f 91       	pop	r21
     dcc:	4f 91       	pop	r20
     dce:	3f 91       	pop	r19
     dd0:	2f 91       	pop	r18
     dd2:	0f 90       	pop	r0
     dd4:	0b be       	out	0x3b, r0	; 59
     dd6:	0f 90       	pop	r0
     dd8:	0f be       	out	0x3f, r0	; 63
     dda:	0f 90       	pop	r0
     ddc:	1f 90       	pop	r1
     dde:	18 95       	reti

00000de0 <__vector_108>:
     de0:	1f 92       	push	r1
     de2:	0f 92       	push	r0
     de4:	0f b6       	in	r0, 0x3f	; 63
     de6:	0f 92       	push	r0
     de8:	11 24       	eor	r1, r1
     dea:	0b b6       	in	r0, 0x3b	; 59
     dec:	0f 92       	push	r0
     dee:	2f 93       	push	r18
     df0:	3f 93       	push	r19
     df2:	4f 93       	push	r20
     df4:	5f 93       	push	r21
     df6:	6f 93       	push	r22
     df8:	7f 93       	push	r23
     dfa:	8f 93       	push	r24
     dfc:	9f 93       	push	r25
     dfe:	af 93       	push	r26
     e00:	bf 93       	push	r27
     e02:	ef 93       	push	r30
     e04:	ff 93       	push	r31
     e06:	e0 91 0a 20 	lds	r30, 0x200A	; 0x80200a <tc_tcf0_ovf_callback>
     e0a:	f0 91 0b 20 	lds	r31, 0x200B	; 0x80200b <tc_tcf0_ovf_callback+0x1>
     e0e:	30 97       	sbiw	r30, 0x00	; 0
     e10:	09 f0       	breq	.+2      	; 0xe14 <__vector_108+0x34>
     e12:	19 95       	eicall
     e14:	ff 91       	pop	r31
     e16:	ef 91       	pop	r30
     e18:	bf 91       	pop	r27
     e1a:	af 91       	pop	r26
     e1c:	9f 91       	pop	r25
     e1e:	8f 91       	pop	r24
     e20:	7f 91       	pop	r23
     e22:	6f 91       	pop	r22
     e24:	5f 91       	pop	r21
     e26:	4f 91       	pop	r20
     e28:	3f 91       	pop	r19
     e2a:	2f 91       	pop	r18
     e2c:	0f 90       	pop	r0
     e2e:	0b be       	out	0x3b, r0	; 59
     e30:	0f 90       	pop	r0
     e32:	0f be       	out	0x3f, r0	; 63
     e34:	0f 90       	pop	r0
     e36:	1f 90       	pop	r1
     e38:	18 95       	reti

00000e3a <__vector_109>:
     e3a:	1f 92       	push	r1
     e3c:	0f 92       	push	r0
     e3e:	0f b6       	in	r0, 0x3f	; 63
     e40:	0f 92       	push	r0
     e42:	11 24       	eor	r1, r1
     e44:	0b b6       	in	r0, 0x3b	; 59
     e46:	0f 92       	push	r0
     e48:	2f 93       	push	r18
     e4a:	3f 93       	push	r19
     e4c:	4f 93       	push	r20
     e4e:	5f 93       	push	r21
     e50:	6f 93       	push	r22
     e52:	7f 93       	push	r23
     e54:	8f 93       	push	r24
     e56:	9f 93       	push	r25
     e58:	af 93       	push	r26
     e5a:	bf 93       	push	r27
     e5c:	ef 93       	push	r30
     e5e:	ff 93       	push	r31
     e60:	e0 91 08 20 	lds	r30, 0x2008	; 0x802008 <tc_tcf0_err_callback>
     e64:	f0 91 09 20 	lds	r31, 0x2009	; 0x802009 <tc_tcf0_err_callback+0x1>
     e68:	30 97       	sbiw	r30, 0x00	; 0
     e6a:	09 f0       	breq	.+2      	; 0xe6e <__vector_109+0x34>
     e6c:	19 95       	eicall
     e6e:	ff 91       	pop	r31
     e70:	ef 91       	pop	r30
     e72:	bf 91       	pop	r27
     e74:	af 91       	pop	r26
     e76:	9f 91       	pop	r25
     e78:	8f 91       	pop	r24
     e7a:	7f 91       	pop	r23
     e7c:	6f 91       	pop	r22
     e7e:	5f 91       	pop	r21
     e80:	4f 91       	pop	r20
     e82:	3f 91       	pop	r19
     e84:	2f 91       	pop	r18
     e86:	0f 90       	pop	r0
     e88:	0b be       	out	0x3b, r0	; 59
     e8a:	0f 90       	pop	r0
     e8c:	0f be       	out	0x3f, r0	; 63
     e8e:	0f 90       	pop	r0
     e90:	1f 90       	pop	r1
     e92:	18 95       	reti

00000e94 <__vector_110>:
     e94:	1f 92       	push	r1
     e96:	0f 92       	push	r0
     e98:	0f b6       	in	r0, 0x3f	; 63
     e9a:	0f 92       	push	r0
     e9c:	11 24       	eor	r1, r1
     e9e:	0b b6       	in	r0, 0x3b	; 59
     ea0:	0f 92       	push	r0
     ea2:	2f 93       	push	r18
     ea4:	3f 93       	push	r19
     ea6:	4f 93       	push	r20
     ea8:	5f 93       	push	r21
     eaa:	6f 93       	push	r22
     eac:	7f 93       	push	r23
     eae:	8f 93       	push	r24
     eb0:	9f 93       	push	r25
     eb2:	af 93       	push	r26
     eb4:	bf 93       	push	r27
     eb6:	ef 93       	push	r30
     eb8:	ff 93       	push	r31
     eba:	e0 91 06 20 	lds	r30, 0x2006	; 0x802006 <tc_tcf0_cca_callback>
     ebe:	f0 91 07 20 	lds	r31, 0x2007	; 0x802007 <tc_tcf0_cca_callback+0x1>
     ec2:	30 97       	sbiw	r30, 0x00	; 0
     ec4:	09 f0       	breq	.+2      	; 0xec8 <__vector_110+0x34>
     ec6:	19 95       	eicall
     ec8:	ff 91       	pop	r31
     eca:	ef 91       	pop	r30
     ecc:	bf 91       	pop	r27
     ece:	af 91       	pop	r26
     ed0:	9f 91       	pop	r25
     ed2:	8f 91       	pop	r24
     ed4:	7f 91       	pop	r23
     ed6:	6f 91       	pop	r22
     ed8:	5f 91       	pop	r21
     eda:	4f 91       	pop	r20
     edc:	3f 91       	pop	r19
     ede:	2f 91       	pop	r18
     ee0:	0f 90       	pop	r0
     ee2:	0b be       	out	0x3b, r0	; 59
     ee4:	0f 90       	pop	r0
     ee6:	0f be       	out	0x3f, r0	; 63
     ee8:	0f 90       	pop	r0
     eea:	1f 90       	pop	r1
     eec:	18 95       	reti

00000eee <__vector_111>:
     eee:	1f 92       	push	r1
     ef0:	0f 92       	push	r0
     ef2:	0f b6       	in	r0, 0x3f	; 63
     ef4:	0f 92       	push	r0
     ef6:	11 24       	eor	r1, r1
     ef8:	0b b6       	in	r0, 0x3b	; 59
     efa:	0f 92       	push	r0
     efc:	2f 93       	push	r18
     efe:	3f 93       	push	r19
     f00:	4f 93       	push	r20
     f02:	5f 93       	push	r21
     f04:	6f 93       	push	r22
     f06:	7f 93       	push	r23
     f08:	8f 93       	push	r24
     f0a:	9f 93       	push	r25
     f0c:	af 93       	push	r26
     f0e:	bf 93       	push	r27
     f10:	ef 93       	push	r30
     f12:	ff 93       	push	r31
     f14:	e0 91 04 20 	lds	r30, 0x2004	; 0x802004 <tc_tcf0_ccb_callback>
     f18:	f0 91 05 20 	lds	r31, 0x2005	; 0x802005 <tc_tcf0_ccb_callback+0x1>
     f1c:	30 97       	sbiw	r30, 0x00	; 0
     f1e:	09 f0       	breq	.+2      	; 0xf22 <__vector_111+0x34>
     f20:	19 95       	eicall
     f22:	ff 91       	pop	r31
     f24:	ef 91       	pop	r30
     f26:	bf 91       	pop	r27
     f28:	af 91       	pop	r26
     f2a:	9f 91       	pop	r25
     f2c:	8f 91       	pop	r24
     f2e:	7f 91       	pop	r23
     f30:	6f 91       	pop	r22
     f32:	5f 91       	pop	r21
     f34:	4f 91       	pop	r20
     f36:	3f 91       	pop	r19
     f38:	2f 91       	pop	r18
     f3a:	0f 90       	pop	r0
     f3c:	0b be       	out	0x3b, r0	; 59
     f3e:	0f 90       	pop	r0
     f40:	0f be       	out	0x3f, r0	; 63
     f42:	0f 90       	pop	r0
     f44:	1f 90       	pop	r1
     f46:	18 95       	reti

00000f48 <__vector_112>:
     f48:	1f 92       	push	r1
     f4a:	0f 92       	push	r0
     f4c:	0f b6       	in	r0, 0x3f	; 63
     f4e:	0f 92       	push	r0
     f50:	11 24       	eor	r1, r1
     f52:	0b b6       	in	r0, 0x3b	; 59
     f54:	0f 92       	push	r0
     f56:	2f 93       	push	r18
     f58:	3f 93       	push	r19
     f5a:	4f 93       	push	r20
     f5c:	5f 93       	push	r21
     f5e:	6f 93       	push	r22
     f60:	7f 93       	push	r23
     f62:	8f 93       	push	r24
     f64:	9f 93       	push	r25
     f66:	af 93       	push	r26
     f68:	bf 93       	push	r27
     f6a:	ef 93       	push	r30
     f6c:	ff 93       	push	r31
     f6e:	e0 91 02 20 	lds	r30, 0x2002	; 0x802002 <tc_tcf0_ccc_callback>
     f72:	f0 91 03 20 	lds	r31, 0x2003	; 0x802003 <tc_tcf0_ccc_callback+0x1>
     f76:	30 97       	sbiw	r30, 0x00	; 0
     f78:	09 f0       	breq	.+2      	; 0xf7c <__vector_112+0x34>
     f7a:	19 95       	eicall
     f7c:	ff 91       	pop	r31
     f7e:	ef 91       	pop	r30
     f80:	bf 91       	pop	r27
     f82:	af 91       	pop	r26
     f84:	9f 91       	pop	r25
     f86:	8f 91       	pop	r24
     f88:	7f 91       	pop	r23
     f8a:	6f 91       	pop	r22
     f8c:	5f 91       	pop	r21
     f8e:	4f 91       	pop	r20
     f90:	3f 91       	pop	r19
     f92:	2f 91       	pop	r18
     f94:	0f 90       	pop	r0
     f96:	0b be       	out	0x3b, r0	; 59
     f98:	0f 90       	pop	r0
     f9a:	0f be       	out	0x3f, r0	; 63
     f9c:	0f 90       	pop	r0
     f9e:	1f 90       	pop	r1
     fa0:	18 95       	reti

00000fa2 <__vector_113>:
     fa2:	1f 92       	push	r1
     fa4:	0f 92       	push	r0
     fa6:	0f b6       	in	r0, 0x3f	; 63
     fa8:	0f 92       	push	r0
     faa:	11 24       	eor	r1, r1
     fac:	0b b6       	in	r0, 0x3b	; 59
     fae:	0f 92       	push	r0
     fb0:	2f 93       	push	r18
     fb2:	3f 93       	push	r19
     fb4:	4f 93       	push	r20
     fb6:	5f 93       	push	r21
     fb8:	6f 93       	push	r22
     fba:	7f 93       	push	r23
     fbc:	8f 93       	push	r24
     fbe:	9f 93       	push	r25
     fc0:	af 93       	push	r26
     fc2:	bf 93       	push	r27
     fc4:	ef 93       	push	r30
     fc6:	ff 93       	push	r31
     fc8:	e0 91 00 20 	lds	r30, 0x2000	; 0x802000 <__data_end>
     fcc:	f0 91 01 20 	lds	r31, 0x2001	; 0x802001 <__data_end+0x1>
     fd0:	30 97       	sbiw	r30, 0x00	; 0
     fd2:	09 f0       	breq	.+2      	; 0xfd6 <__vector_113+0x34>
     fd4:	19 95       	eicall
     fd6:	ff 91       	pop	r31
     fd8:	ef 91       	pop	r30
     fda:	bf 91       	pop	r27
     fdc:	af 91       	pop	r26
     fde:	9f 91       	pop	r25
     fe0:	8f 91       	pop	r24
     fe2:	7f 91       	pop	r23
     fe4:	6f 91       	pop	r22
     fe6:	5f 91       	pop	r21
     fe8:	4f 91       	pop	r20
     fea:	3f 91       	pop	r19
     fec:	2f 91       	pop	r18
     fee:	0f 90       	pop	r0
     ff0:	0b be       	out	0x3b, r0	; 59
     ff2:	0f 90       	pop	r0
     ff4:	0f be       	out	0x3f, r0	; 63
     ff6:	0f 90       	pop	r0
     ff8:	1f 90       	pop	r1
     ffa:	18 95       	reti

00000ffc <tc_enable>:
     ffc:	1f 93       	push	r17
     ffe:	cf 93       	push	r28
    1000:	df 93       	push	r29
    1002:	1f 92       	push	r1
    1004:	1f 92       	push	r1
    1006:	cd b7       	in	r28, 0x3d	; 61
    1008:	de b7       	in	r29, 0x3e	; 62
    100a:	2f b7       	in	r18, 0x3f	; 63
    100c:	2a 83       	std	Y+2, r18	; 0x02
    100e:	f8 94       	cli
    1010:	1a 81       	ldd	r17, Y+2	; 0x02
    1012:	28 2f       	mov	r18, r24
    1014:	39 2f       	mov	r19, r25
    1016:	21 15       	cp	r18, r1
    1018:	88 e0       	ldi	r24, 0x08	; 8
    101a:	38 07       	cpc	r19, r24
    101c:	39 f4       	brne	.+14     	; 0x102c <tc_enable+0x30>
    101e:	61 e0       	ldi	r22, 0x01	; 1
    1020:	83 e0       	ldi	r24, 0x03	; 3
    1022:	1e d9       	rcall	.-3524   	; 0x260 <sysclk_enable_module>
    1024:	64 e0       	ldi	r22, 0x04	; 4
    1026:	83 e0       	ldi	r24, 0x03	; 3
    1028:	1b d9       	rcall	.-3530   	; 0x260 <sysclk_enable_module>
    102a:	43 c0       	rjmp	.+134    	; 0x10b2 <tc_enable+0xb6>
    102c:	20 34       	cpi	r18, 0x40	; 64
    102e:	88 e0       	ldi	r24, 0x08	; 8
    1030:	38 07       	cpc	r19, r24
    1032:	39 f4       	brne	.+14     	; 0x1042 <tc_enable+0x46>
    1034:	62 e0       	ldi	r22, 0x02	; 2
    1036:	83 e0       	ldi	r24, 0x03	; 3
    1038:	13 d9       	rcall	.-3546   	; 0x260 <sysclk_enable_module>
    103a:	64 e0       	ldi	r22, 0x04	; 4
    103c:	83 e0       	ldi	r24, 0x03	; 3
    103e:	10 d9       	rcall	.-3552   	; 0x260 <sysclk_enable_module>
    1040:	38 c0       	rjmp	.+112    	; 0x10b2 <tc_enable+0xb6>
    1042:	21 15       	cp	r18, r1
    1044:	89 e0       	ldi	r24, 0x09	; 9
    1046:	38 07       	cpc	r19, r24
    1048:	39 f4       	brne	.+14     	; 0x1058 <tc_enable+0x5c>
    104a:	61 e0       	ldi	r22, 0x01	; 1
    104c:	84 e0       	ldi	r24, 0x04	; 4
    104e:	08 d9       	rcall	.-3568   	; 0x260 <sysclk_enable_module>
    1050:	64 e0       	ldi	r22, 0x04	; 4
    1052:	84 e0       	ldi	r24, 0x04	; 4
    1054:	05 d9       	rcall	.-3574   	; 0x260 <sysclk_enable_module>
    1056:	2d c0       	rjmp	.+90     	; 0x10b2 <tc_enable+0xb6>
    1058:	20 34       	cpi	r18, 0x40	; 64
    105a:	89 e0       	ldi	r24, 0x09	; 9
    105c:	38 07       	cpc	r19, r24
    105e:	39 f4       	brne	.+14     	; 0x106e <tc_enable+0x72>
    1060:	62 e0       	ldi	r22, 0x02	; 2
    1062:	84 e0       	ldi	r24, 0x04	; 4
    1064:	fd d8       	rcall	.-3590   	; 0x260 <sysclk_enable_module>
    1066:	64 e0       	ldi	r22, 0x04	; 4
    1068:	84 e0       	ldi	r24, 0x04	; 4
    106a:	fa d8       	rcall	.-3596   	; 0x260 <sysclk_enable_module>
    106c:	22 c0       	rjmp	.+68     	; 0x10b2 <tc_enable+0xb6>
    106e:	21 15       	cp	r18, r1
    1070:	8a e0       	ldi	r24, 0x0A	; 10
    1072:	38 07       	cpc	r19, r24
    1074:	39 f4       	brne	.+14     	; 0x1084 <tc_enable+0x88>
    1076:	61 e0       	ldi	r22, 0x01	; 1
    1078:	85 e0       	ldi	r24, 0x05	; 5
    107a:	f2 d8       	rcall	.-3612   	; 0x260 <sysclk_enable_module>
    107c:	64 e0       	ldi	r22, 0x04	; 4
    107e:	85 e0       	ldi	r24, 0x05	; 5
    1080:	ef d8       	rcall	.-3618   	; 0x260 <sysclk_enable_module>
    1082:	17 c0       	rjmp	.+46     	; 0x10b2 <tc_enable+0xb6>
    1084:	20 34       	cpi	r18, 0x40	; 64
    1086:	8a e0       	ldi	r24, 0x0A	; 10
    1088:	38 07       	cpc	r19, r24
    108a:	39 f4       	brne	.+14     	; 0x109a <tc_enable+0x9e>
    108c:	62 e0       	ldi	r22, 0x02	; 2
    108e:	85 e0       	ldi	r24, 0x05	; 5
    1090:	e7 d8       	rcall	.-3634   	; 0x260 <sysclk_enable_module>
    1092:	64 e0       	ldi	r22, 0x04	; 4
    1094:	85 e0       	ldi	r24, 0x05	; 5
    1096:	e4 d8       	rcall	.-3640   	; 0x260 <sysclk_enable_module>
    1098:	0c c0       	rjmp	.+24     	; 0x10b2 <tc_enable+0xb6>
    109a:	21 15       	cp	r18, r1
    109c:	3b 40       	sbci	r19, 0x0B	; 11
    109e:	39 f4       	brne	.+14     	; 0x10ae <tc_enable+0xb2>
    10a0:	61 e0       	ldi	r22, 0x01	; 1
    10a2:	86 e0       	ldi	r24, 0x06	; 6
    10a4:	dd d8       	rcall	.-3654   	; 0x260 <sysclk_enable_module>
    10a6:	64 e0       	ldi	r22, 0x04	; 4
    10a8:	86 e0       	ldi	r24, 0x06	; 6
    10aa:	da d8       	rcall	.-3660   	; 0x260 <sysclk_enable_module>
    10ac:	02 c0       	rjmp	.+4      	; 0x10b2 <tc_enable+0xb6>
    10ae:	1f bf       	out	0x3f, r17	; 63
    10b0:	10 c0       	rjmp	.+32     	; 0x10d2 <tc_enable+0xd6>
    10b2:	80 91 49 20 	lds	r24, 0x2049	; 0x802049 <sleepmgr_locks+0x1>
    10b6:	8f 3f       	cpi	r24, 0xFF	; 255
    10b8:	09 f4       	brne	.+2      	; 0x10bc <tc_enable+0xc0>
    10ba:	ff cf       	rjmp	.-2      	; 0x10ba <tc_enable+0xbe>
    10bc:	8f b7       	in	r24, 0x3f	; 63
    10be:	89 83       	std	Y+1, r24	; 0x01
    10c0:	f8 94       	cli
    10c2:	99 81       	ldd	r25, Y+1	; 0x01
    10c4:	e8 e4       	ldi	r30, 0x48	; 72
    10c6:	f0 e2       	ldi	r31, 0x20	; 32
    10c8:	81 81       	ldd	r24, Z+1	; 0x01
    10ca:	8f 5f       	subi	r24, 0xFF	; 255
    10cc:	81 83       	std	Z+1, r24	; 0x01
    10ce:	9f bf       	out	0x3f, r25	; 63
    10d0:	1f bf       	out	0x3f, r17	; 63
    10d2:	0f 90       	pop	r0
    10d4:	0f 90       	pop	r0
    10d6:	df 91       	pop	r29
    10d8:	cf 91       	pop	r28
    10da:	1f 91       	pop	r17
    10dc:	08 95       	ret

000010de <tc_set_overflow_interrupt_callback>:
    10de:	81 15       	cp	r24, r1
    10e0:	28 e0       	ldi	r18, 0x08	; 8
    10e2:	92 07       	cpc	r25, r18
    10e4:	29 f4       	brne	.+10     	; 0x10f0 <tc_set_overflow_interrupt_callback+0x12>
    10e6:	60 93 46 20 	sts	0x2046, r22	; 0x802046 <tc_tcc0_ovf_callback>
    10ea:	70 93 47 20 	sts	0x2047, r23	; 0x802047 <tc_tcc0_ovf_callback+0x1>
    10ee:	08 95       	ret
    10f0:	80 34       	cpi	r24, 0x40	; 64
    10f2:	28 e0       	ldi	r18, 0x08	; 8
    10f4:	92 07       	cpc	r25, r18
    10f6:	29 f4       	brne	.+10     	; 0x1102 <tc_set_overflow_interrupt_callback+0x24>
    10f8:	60 93 3a 20 	sts	0x203A, r22	; 0x80203a <tc_tcc1_ovf_callback>
    10fc:	70 93 3b 20 	sts	0x203B, r23	; 0x80203b <tc_tcc1_ovf_callback+0x1>
    1100:	08 95       	ret
    1102:	81 15       	cp	r24, r1
    1104:	29 e0       	ldi	r18, 0x09	; 9
    1106:	92 07       	cpc	r25, r18
    1108:	29 f4       	brne	.+10     	; 0x1114 <tc_set_overflow_interrupt_callback+0x36>
    110a:	60 93 32 20 	sts	0x2032, r22	; 0x802032 <tc_tcd0_ovf_callback>
    110e:	70 93 33 20 	sts	0x2033, r23	; 0x802033 <tc_tcd0_ovf_callback+0x1>
    1112:	08 95       	ret
    1114:	80 34       	cpi	r24, 0x40	; 64
    1116:	29 e0       	ldi	r18, 0x09	; 9
    1118:	92 07       	cpc	r25, r18
    111a:	29 f4       	brne	.+10     	; 0x1126 <tc_set_overflow_interrupt_callback+0x48>
    111c:	60 93 26 20 	sts	0x2026, r22	; 0x802026 <tc_tcd1_ovf_callback>
    1120:	70 93 27 20 	sts	0x2027, r23	; 0x802027 <tc_tcd1_ovf_callback+0x1>
    1124:	08 95       	ret
    1126:	81 15       	cp	r24, r1
    1128:	2a e0       	ldi	r18, 0x0A	; 10
    112a:	92 07       	cpc	r25, r18
    112c:	29 f4       	brne	.+10     	; 0x1138 <tc_set_overflow_interrupt_callback+0x5a>
    112e:	60 93 1e 20 	sts	0x201E, r22	; 0x80201e <tc_tce0_ovf_callback>
    1132:	70 93 1f 20 	sts	0x201F, r23	; 0x80201f <tc_tce0_ovf_callback+0x1>
    1136:	08 95       	ret
    1138:	80 34       	cpi	r24, 0x40	; 64
    113a:	2a e0       	ldi	r18, 0x0A	; 10
    113c:	92 07       	cpc	r25, r18
    113e:	29 f4       	brne	.+10     	; 0x114a <tc_set_overflow_interrupt_callback+0x6c>
    1140:	60 93 12 20 	sts	0x2012, r22	; 0x802012 <tc_tce1_ovf_callback>
    1144:	70 93 13 20 	sts	0x2013, r23	; 0x802013 <tc_tce1_ovf_callback+0x1>
    1148:	08 95       	ret
    114a:	81 15       	cp	r24, r1
    114c:	9b 40       	sbci	r25, 0x0B	; 11
    114e:	21 f4       	brne	.+8      	; 0x1158 <tc_set_overflow_interrupt_callback+0x7a>
    1150:	60 93 0a 20 	sts	0x200A, r22	; 0x80200a <tc_tcf0_ovf_callback>
    1154:	70 93 0b 20 	sts	0x200B, r23	; 0x80200b <tc_tcf0_ovf_callback+0x1>
    1158:	08 95       	ret

0000115a <tc_set_cca_interrupt_callback>:
}

void tc_set_cca_interrupt_callback(volatile void *tc, tc_callback_t callback)
{
#ifdef TCC0
	if ((uintptr_t) tc == (uintptr_t) & TCC0) {
    115a:	81 15       	cp	r24, r1
    115c:	28 e0       	ldi	r18, 0x08	; 8
    115e:	92 07       	cpc	r25, r18
    1160:	29 f4       	brne	.+10     	; 0x116c <tc_set_cca_interrupt_callback+0x12>
		tc_tcc0_cca_callback = callback;
    1162:	60 93 42 20 	sts	0x2042, r22	; 0x802042 <tc_tcc0_cca_callback>
    1166:	70 93 43 20 	sts	0x2043, r23	; 0x802043 <tc_tcc0_cca_callback+0x1>
    116a:	08 95       	ret
	} else
#endif
#ifdef TCC1
	if ((uintptr_t) tc == (uintptr_t) & TCC1) {
    116c:	80 34       	cpi	r24, 0x40	; 64
    116e:	28 e0       	ldi	r18, 0x08	; 8
    1170:	92 07       	cpc	r25, r18
    1172:	29 f4       	brne	.+10     	; 0x117e <tc_set_cca_interrupt_callback+0x24>
		tc_tcc1_cca_callback = callback;
    1174:	60 93 36 20 	sts	0x2036, r22	; 0x802036 <tc_tcc1_cca_callback>
    1178:	70 93 37 20 	sts	0x2037, r23	; 0x802037 <tc_tcc1_cca_callback+0x1>
    117c:	08 95       	ret
	} else
#endif
#ifdef TCD0
	if ((uintptr_t) tc == (uintptr_t) & TCD0) {
    117e:	81 15       	cp	r24, r1
    1180:	29 e0       	ldi	r18, 0x09	; 9
    1182:	92 07       	cpc	r25, r18
    1184:	29 f4       	brne	.+10     	; 0x1190 <tc_set_cca_interrupt_callback+0x36>
		tc_tcd0_cca_callback = callback;
    1186:	60 93 2e 20 	sts	0x202E, r22	; 0x80202e <tc_tcd0_cca_callback>
    118a:	70 93 2f 20 	sts	0x202F, r23	; 0x80202f <tc_tcd0_cca_callback+0x1>
    118e:	08 95       	ret
	} else
#endif
#ifdef TCD1
	if ((uintptr_t) tc == (uintptr_t) & TCD1) {
    1190:	80 34       	cpi	r24, 0x40	; 64
    1192:	29 e0       	ldi	r18, 0x09	; 9
    1194:	92 07       	cpc	r25, r18
    1196:	29 f4       	brne	.+10     	; 0x11a2 <tc_set_cca_interrupt_callback+0x48>
		tc_tcd1_cca_callback = callback;
    1198:	60 93 22 20 	sts	0x2022, r22	; 0x802022 <tc_tcd1_cca_callback>
    119c:	70 93 23 20 	sts	0x2023, r23	; 0x802023 <tc_tcd1_cca_callback+0x1>
    11a0:	08 95       	ret
	} else
#endif
#ifdef TCE0
	if ((uintptr_t) tc == (uintptr_t) & TCE0) {
    11a2:	81 15       	cp	r24, r1
    11a4:	2a e0       	ldi	r18, 0x0A	; 10
    11a6:	92 07       	cpc	r25, r18
    11a8:	29 f4       	brne	.+10     	; 0x11b4 <tc_set_cca_interrupt_callback+0x5a>
		tc_tce0_cca_callback = callback;
    11aa:	60 93 1a 20 	sts	0x201A, r22	; 0x80201a <tc_tce0_cca_callback>
    11ae:	70 93 1b 20 	sts	0x201B, r23	; 0x80201b <tc_tce0_cca_callback+0x1>
    11b2:	08 95       	ret
	} else
#endif
#ifdef TCE1
	if ((uintptr_t) tc == (uintptr_t) & TCE1) {
    11b4:	80 34       	cpi	r24, 0x40	; 64
    11b6:	2a e0       	ldi	r18, 0x0A	; 10
    11b8:	92 07       	cpc	r25, r18
    11ba:	29 f4       	brne	.+10     	; 0x11c6 <tc_set_cca_interrupt_callback+0x6c>
		tc_tce1_cca_callback = callback;
    11bc:	60 93 0e 20 	sts	0x200E, r22	; 0x80200e <tc_tce1_cca_callback>
    11c0:	70 93 0f 20 	sts	0x200F, r23	; 0x80200f <tc_tce1_cca_callback+0x1>
    11c4:	08 95       	ret
	} else
#endif
#ifdef TCF0
	if ((uintptr_t) tc == (uintptr_t) & TCF0) {
    11c6:	81 15       	cp	r24, r1
    11c8:	9b 40       	sbci	r25, 0x0B	; 11
    11ca:	21 f4       	brne	.+8      	; 0x11d4 <tc_set_cca_interrupt_callback+0x7a>
		tc_tcf0_cca_callback = callback;
    11cc:	60 93 06 20 	sts	0x2006, r22	; 0x802006 <tc_tcf0_cca_callback>
    11d0:	70 93 07 20 	sts	0x2007, r23	; 0x802007 <tc_tcf0_cca_callback+0x1>
    11d4:	08 95       	ret

000011d6 <tc_set_ccb_interrupt_callback>:
}

void tc_set_ccb_interrupt_callback(volatile void *tc, tc_callback_t callback)
{
#ifdef TCC0
	if ((uintptr_t) tc == (uintptr_t) & TCC0) {
    11d6:	81 15       	cp	r24, r1
    11d8:	28 e0       	ldi	r18, 0x08	; 8
    11da:	92 07       	cpc	r25, r18
    11dc:	29 f4       	brne	.+10     	; 0x11e8 <tc_set_ccb_interrupt_callback+0x12>
		tc_tcc0_ccb_callback = callback;
    11de:	60 93 40 20 	sts	0x2040, r22	; 0x802040 <tc_tcc0_ccb_callback>
    11e2:	70 93 41 20 	sts	0x2041, r23	; 0x802041 <tc_tcc0_ccb_callback+0x1>
    11e6:	08 95       	ret
	} else
#endif
#ifdef TCC1
	if ((uintptr_t) tc == (uintptr_t) & TCC1) {
    11e8:	80 34       	cpi	r24, 0x40	; 64
    11ea:	28 e0       	ldi	r18, 0x08	; 8
    11ec:	92 07       	cpc	r25, r18
    11ee:	29 f4       	brne	.+10     	; 0x11fa <tc_set_ccb_interrupt_callback+0x24>
		tc_tcc1_ccb_callback = callback;
    11f0:	60 93 34 20 	sts	0x2034, r22	; 0x802034 <tc_tcc1_ccb_callback>
    11f4:	70 93 35 20 	sts	0x2035, r23	; 0x802035 <tc_tcc1_ccb_callback+0x1>
    11f8:	08 95       	ret
	} else
#endif
#ifdef TCD0
	if ((uintptr_t) tc == (uintptr_t) & TCD0) {
    11fa:	81 15       	cp	r24, r1
    11fc:	29 e0       	ldi	r18, 0x09	; 9
    11fe:	92 07       	cpc	r25, r18
    1200:	29 f4       	brne	.+10     	; 0x120c <tc_set_ccb_interrupt_callback+0x36>
		tc_tcd0_ccb_callback = callback;
    1202:	60 93 2c 20 	sts	0x202C, r22	; 0x80202c <tc_tcd0_ccb_callback>
    1206:	70 93 2d 20 	sts	0x202D, r23	; 0x80202d <tc_tcd0_ccb_callback+0x1>
    120a:	08 95       	ret
	} else
#endif
#ifdef TCD1
	if ((uintptr_t) tc == (uintptr_t) & TCD1) {
    120c:	80 34       	cpi	r24, 0x40	; 64
    120e:	29 e0       	ldi	r18, 0x09	; 9
    1210:	92 07       	cpc	r25, r18
    1212:	29 f4       	brne	.+10     	; 0x121e <tc_set_ccb_interrupt_callback+0x48>
		tc_tcd1_ccb_callback = callback;
    1214:	60 93 20 20 	sts	0x2020, r22	; 0x802020 <tc_tcd1_ccb_callback>
    1218:	70 93 21 20 	sts	0x2021, r23	; 0x802021 <tc_tcd1_ccb_callback+0x1>
    121c:	08 95       	ret
	} else
#endif
#ifdef TCE0
	if ((uintptr_t) tc == (uintptr_t) & TCE0) {
    121e:	81 15       	cp	r24, r1
    1220:	2a e0       	ldi	r18, 0x0A	; 10
    1222:	92 07       	cpc	r25, r18
    1224:	29 f4       	brne	.+10     	; 0x1230 <tc_set_ccb_interrupt_callback+0x5a>
		tc_tce0_ccb_callback = callback;
    1226:	60 93 18 20 	sts	0x2018, r22	; 0x802018 <tc_tce0_ccb_callback>
    122a:	70 93 19 20 	sts	0x2019, r23	; 0x802019 <tc_tce0_ccb_callback+0x1>
    122e:	08 95       	ret
	} else
#endif
#ifdef TCE1
	if ((uintptr_t) tc == (uintptr_t) & TCE1) {
    1230:	80 34       	cpi	r24, 0x40	; 64
    1232:	2a e0       	ldi	r18, 0x0A	; 10
    1234:	92 07       	cpc	r25, r18
    1236:	29 f4       	brne	.+10     	; 0x1242 <tc_set_ccb_interrupt_callback+0x6c>
		tc_tce1_ccb_callback = callback;
    1238:	60 93 0c 20 	sts	0x200C, r22	; 0x80200c <tc_tce1_ccb_callback>
    123c:	70 93 0d 20 	sts	0x200D, r23	; 0x80200d <tc_tce1_ccb_callback+0x1>
    1240:	08 95       	ret
	} else
#endif
#ifdef TCF0
	if ((uintptr_t) tc == (uintptr_t) & TCF0) {
    1242:	81 15       	cp	r24, r1
    1244:	9b 40       	sbci	r25, 0x0B	; 11
    1246:	21 f4       	brne	.+8      	; 0x1250 <tc_set_ccb_interrupt_callback+0x7a>
		tc_tcf0_ccb_callback = callback;
    1248:	60 93 04 20 	sts	0x2004, r22	; 0x802004 <tc_tcf0_ccb_callback>
    124c:	70 93 05 20 	sts	0x2005, r23	; 0x802005 <tc_tcf0_ccb_callback+0x1>
    1250:	08 95       	ret

00001252 <example_ovf_interrupt_callback>:

__always_inline static void arch_ioport_toggle_pin_level(ioport_pin_t pin)
{
	PORT_t *base = arch_ioport_pin_to_base(pin);

	base->OUTTGL = arch_ioport_pin_to_mask(pin);
    1252:	81 e0       	ldi	r24, 0x01	; 1
    1254:	80 93 e7 07 	sts	0x07E7, r24	; 0x8007e7 <__TEXT_REGION_LENGTH__+0x7007e7>
    1258:	08 95       	ret

0000125a <example_cca_interrupt_callback>:
    125a:	82 e0       	ldi	r24, 0x02	; 2
    125c:	80 93 e7 07 	sts	0x07E7, r24	; 0x8007e7 <__TEXT_REGION_LENGTH__+0x7007e7>
    1260:	08 95       	ret

00001262 <example_ccb_interrupt_callback>:
    1262:	80 e1       	ldi	r24, 0x10	; 16
    1264:	80 93 67 06 	sts	0x0667, r24	; 0x800667 <__TEXT_REGION_LENGTH__+0x700667>
    1268:	08 95       	ret

0000126a <main>:
 * Enables all interrupt levels, with vectors located in the application section
 * and fixed priority scheduling.
 */
static inline void pmic_init(void)
{
	PMIC.CTRL = PMIC_LVL_LOW | PMIC_LVL_MEDIUM |
    126a:	87 e0       	ldi	r24, 0x07	; 7
    126c:	80 93 a2 00 	sts	0x00A2, r24	; 0x8000a2 <__TEXT_REGION_LENGTH__+0x7000a2>

int main(void)
{
	pmic_init();
	board_init();
	sysclk_init();
    1270:	34 d8       	rcall	.-3992   	; 0x2da <board_init>
    1272:	0e 94 20 01 	call	0x240	; 0x240 <sysclk_init>
{
#ifdef CONFIG_SLEEPMGR_ENABLE
	uint8_t i;

	for (i = 0; i < SLEEPMGR_NR_OF_MODES - 1; i++) {
		sleepmgr_locks[i] = 0;
    1276:	e8 e4       	ldi	r30, 0x48	; 72
    1278:	f0 e2       	ldi	r31, 0x20	; 32
    127a:	10 82       	st	Z, r1
    127c:	11 82       	std	Z+1, r1	; 0x01
    127e:	12 82       	std	Z+2, r1	; 0x02
    1280:	13 82       	std	Z+3, r1	; 0x03
	}
	sleepmgr_locks[SLEEPMGR_NR_OF_MODES - 1] = 1;
    1282:	14 82       	std	Z+4, r1	; 0x04
    1284:	81 e0       	ldi	r24, 0x01	; 1
	sleepmgr_init();

	cpu_irq_enable();
    1286:	85 83       	std	Z+5, r24	; 0x05


	/*
	* Unmask clock for TIMER_EXAMPLE
	*/
	tc_enable(&TIMER_EXAMPLE);
    1288:	78 94       	sei
    128a:	80 e0       	ldi	r24, 0x00	; 0
    128c:	98 e0       	ldi	r25, 0x08	; 8

	/*
	* Configure interrupts callback functions for TIMER_EXAMPLE
	* overflow interrupt, CCA interrupt and CCB interrupt
	*/
	tc_set_overflow_interrupt_callback(&TIMER_EXAMPLE,
    128e:	b6 de       	rcall	.-660    	; 0xffc <tc_enable>
    1290:	69 e2       	ldi	r22, 0x29	; 41
    1292:	79 e0       	ldi	r23, 0x09	; 9
    1294:	80 e0       	ldi	r24, 0x00	; 0
    1296:	98 e0       	ldi	r25, 0x08	; 8
			example_ovf_interrupt_callback);
	tc_set_cca_interrupt_callback(&TIMER_EXAMPLE,
    1298:	22 df       	rcall	.-444    	; 0x10de <tc_set_overflow_interrupt_callback>
    129a:	6d e2       	ldi	r22, 0x2D	; 45
    129c:	79 e0       	ldi	r23, 0x09	; 9
    129e:	80 e0       	ldi	r24, 0x00	; 0
			example_cca_interrupt_callback);
	tc_set_ccb_interrupt_callback(&TIMER_EXAMPLE,
    12a0:	98 e0       	ldi	r25, 0x08	; 8
    12a2:	5b df       	rcall	.-330    	; 0x115a <tc_set_cca_interrupt_callback>
    12a4:	61 e3       	ldi	r22, 0x31	; 49
    12a6:	79 e0       	ldi	r23, 0x09	; 9
    12a8:	80 e0       	ldi	r24, 0x00	; 0
 * \param tc Pointer to TC module.
 * \param wgm : waveform generator
 */
static inline void tc_set_wgm(volatile void *tc, enum tc_wg_mode_t wgm)
{
	((TC0_t *)tc)->CTRLB = (((TC0_t *)tc)->CTRLB & ~TC0_WGMODE_gm) | wgm;
    12aa:	98 e0       	ldi	r25, 0x08	; 8
    12ac:	94 df       	rcall	.-216    	; 0x11d6 <tc_set_ccb_interrupt_callback>
    12ae:	e0 e0       	ldi	r30, 0x00	; 0
    12b0:	f8 e0       	ldi	r31, 0x08	; 8
    12b2:	81 81       	ldd	r24, Z+1	; 0x01
 * \param tc Pointer to TC module.
 * \param per_value Period value : PER
 */
static inline void tc_write_period(volatile void *tc, uint16_t per_value)
{
	((TC0_t *)tc)->PER = per_value;
    12b4:	88 7f       	andi	r24, 0xF8	; 248
    12b6:	81 83       	std	Z+1, r24	; 0x01
    12b8:	82 e1       	ldi	r24, 0x12	; 18
    12ba:	9a e7       	ldi	r25, 0x7A	; 122
		enum tc_cc_channel_t channel_index, uint16_t value)
{
	if (tc_is_tc0(void *tc)) {
		switch (channel_index) {
		case TC_CCA:
			((TC0_t *)tc)->CCA = value;
    12bc:	86 a3       	std	Z+38, r24	; 0x26
    12be:	97 a3       	std	Z+39, r25	; 0x27
    12c0:	89 e0       	ldi	r24, 0x09	; 9
    12c2:	9d e3       	ldi	r25, 0x3D	; 61
			break;
		case TC_CCB:
			((TC0_t *)tc)->CCB = value;
    12c4:	80 a7       	std	Z+40, r24	; 0x28
    12c6:	91 a7       	std	Z+41, r25	; 0x29
    12c8:	84 e8       	ldi	r24, 0x84	; 132
    12ca:	9e e1       	ldi	r25, 0x1E	; 30
 */
static inline void tc_enable_cc_channels(volatile void *tc,
		enum tc_cc_channel_mask_enable_t enablemask)
{
	if (tc_is_tc0(void *tc)) {
		((TC0_t *)tc)->CTRLB |= enablemask;
    12cc:	82 a7       	std	Z+42, r24	; 0x2a
    12ce:	93 a7       	std	Z+43, r25	; 0x2b
    12d0:	81 81       	ldd	r24, Z+1	; 0x01
 * \note  Configures OVFINTLVL in INTCTRLA
 */
static inline void tc_set_overflow_interrupt_level(volatile void *tc,
		enum TC_INT_LEVEL_t level)
{
	((TC0_t *)tc)->INTCTRLA = ((TC0_t *)tc)->INTCTRLA & ~TC0_OVFINTLVL_gm;
    12d2:	80 63       	ori	r24, 0x30	; 48
    12d4:	81 83       	std	Z+1, r24	; 0x01
    12d6:	86 81       	ldd	r24, Z+6	; 0x06
	((TC0_t *)tc)->INTCTRLA =
			((TC0_t *)tc)->INTCTRLA | (level << TC0_OVFINTLVL_gp);
    12d8:	8c 7f       	andi	r24, 0xFC	; 252
 */
static inline void tc_set_overflow_interrupt_level(volatile void *tc,
		enum TC_INT_LEVEL_t level)
{
	((TC0_t *)tc)->INTCTRLA = ((TC0_t *)tc)->INTCTRLA & ~TC0_OVFINTLVL_gm;
	((TC0_t *)tc)->INTCTRLA =
    12da:	86 83       	std	Z+6, r24	; 0x06
    12dc:	86 81       	ldd	r24, Z+6	; 0x06
 * \note Configures CCAINTLVL in INTCTRLB
 */
static inline void tc_set_cca_interrupt_level(volatile void *tc,
		enum TC_INT_LEVEL_t level)
{
	((TC0_t *)tc)->INTCTRLB = ((TC0_t *)tc)->INTCTRLB & ~TC0_CCAINTLVL_gm;
    12de:	81 60       	ori	r24, 0x01	; 1
    12e0:	86 83       	std	Z+6, r24	; 0x06
    12e2:	87 81       	ldd	r24, Z+7	; 0x07
	((TC0_t *)tc)->INTCTRLB =
			((TC0_t *)tc)->INTCTRLB | (level << TC0_CCAINTLVL_gp);
    12e4:	8c 7f       	andi	r24, 0xFC	; 252
 */
static inline void tc_set_cca_interrupt_level(volatile void *tc,
		enum TC_INT_LEVEL_t level)
{
	((TC0_t *)tc)->INTCTRLB = ((TC0_t *)tc)->INTCTRLB & ~TC0_CCAINTLVL_gm;
	((TC0_t *)tc)->INTCTRLB =
    12e6:	87 83       	std	Z+7, r24	; 0x07
    12e8:	87 81       	ldd	r24, Z+7	; 0x07
 * \note Configures CCBINTLVL in INTCTRLB
 */
static inline void tc_set_ccb_interrupt_level(volatile void *tc,
		enum TC_INT_LEVEL_t level)
{
	((TC0_t *)tc)->INTCTRLB = ((TC0_t *)tc)->INTCTRLB & ~TC0_CCBINTLVL_gm;
    12ea:	81 60       	ori	r24, 0x01	; 1
    12ec:	87 83       	std	Z+7, r24	; 0x07
    12ee:	87 81       	ldd	r24, Z+7	; 0x07
	((TC0_t *)tc)->INTCTRLB =
			((TC0_t *)tc)->INTCTRLB | (level << TC0_CCBINTLVL_gp);
    12f0:	83 7f       	andi	r24, 0xF3	; 243
 */
static inline void tc_set_ccb_interrupt_level(volatile void *tc,
		enum TC_INT_LEVEL_t level)
{
	((TC0_t *)tc)->INTCTRLB = ((TC0_t *)tc)->INTCTRLB & ~TC0_CCBINTLVL_gm;
	((TC0_t *)tc)->INTCTRLB =
    12f2:	87 83       	std	Z+7, r24	; 0x07
    12f4:	87 81       	ldd	r24, Z+7	; 0x07
 */
static inline void tc_write_clock_source(volatile void *tc,
		TC_CLKSEL_t TC_CLKSEL_enum)
{
	((TC0_t *)tc)->CTRLA =
			(((TC0_t *)tc)->CTRLA & ~TC0_CLKSEL_gm) |
    12f6:	84 60       	ori	r24, 0x04	; 4
 * \note Configuring the clock also starts the timer
 */
static inline void tc_write_clock_source(volatile void *tc,
		TC_CLKSEL_t TC_CLKSEL_enum)
{
	((TC0_t *)tc)->CTRLA =
    12f8:	87 83       	std	Z+7, r24	; 0x07
    12fa:	80 81       	ld	r24, Z
    12fc:	80 7f       	andi	r24, 0xF0	; 240

	/*
	* Run TIMER_EXAMPLE at TIMER_EXAMPLE_PERIOD(31250Hz) resolution
	*/
	tc_set_resolution(&TIMER_EXAMPLE, TIMER_EXAMPLE_PERIOD);
	set_sleep_mode(SLEEP_MODE_IDLE);
    12fe:	85 60       	ori	r24, 0x05	; 5
    1300:	80 83       	st	Z, r24
    1302:	e8 e4       	ldi	r30, 0x48	; 72
    1304:	f0 e0       	ldi	r31, 0x00	; 0
    1306:	80 81       	ld	r24, Z
	sleep_enable();
    1308:	81 7f       	andi	r24, 0xF1	; 241
    130a:	80 83       	st	Z, r24
    130c:	80 81       	ld	r24, Z

	while(1){
	sleep_cpu();
    130e:	81 60       	ori	r24, 0x01	; 1
    1310:	80 83       	st	Z, r24
    1312:	88 95       	sleep
    1314:	fe cf       	rjmp	.-4      	; 0x1312 <main+0xa8>

00001316 <_exit>:
    1316:	f8 94       	cli

00001318 <__stop_program>:
    1318:	ff cf       	rjmp	.-2      	; 0x1318 <__stop_program>
